
mt-matmul.riscv:     file format elf64-littleriscv


Disassembly of section .text.init:

0000000010000000 <_start>:
    10000000:	00000093          	li	ra,0
    10000004:	00000113          	li	sp,0
    10000008:	00000193          	li	gp,0
    1000000c:	00000213          	li	tp,0
    10000010:	00000293          	li	t0,0
    10000014:	00000313          	li	t1,0
    10000018:	00000393          	li	t2,0
    1000001c:	00000413          	li	s0,0
    10000020:	00000493          	li	s1,0
    10000024:	00000513          	li	a0,0
    10000028:	00000593          	li	a1,0
    1000002c:	00000613          	li	a2,0
    10000030:	00000693          	li	a3,0
    10000034:	00000713          	li	a4,0
    10000038:	00000793          	li	a5,0
    1000003c:	00000813          	li	a6,0
    10000040:	00000893          	li	a7,0
    10000044:	00000913          	li	s2,0
    10000048:	00000993          	li	s3,0
    1000004c:	00000a13          	li	s4,0
    10000050:	00000a93          	li	s5,0
    10000054:	00000b13          	li	s6,0
    10000058:	00000b93          	li	s7,0
    1000005c:	00000c13          	li	s8,0
    10000060:	00000c93          	li	s9,0
    10000064:	00000d13          	li	s10,0
    10000068:	00000d93          	li	s11,0
    1000006c:	00000e13          	li	t3,0
    10000070:	00000e93          	li	t4,0
    10000074:	00000f13          	li	t5,0
    10000078:	00000f93          	li	t6,0
    1000007c:	00100293          	li	t0,1
    10000080:	01f29293          	slli	t0,t0,0x1f
    10000084:	0202d063          	bgez	t0,100000a4 <_start+0xa4>
    10000088:	00100513          	li	a0,1
    1000008c:	000e0337          	lui	t1,0xe0
    10000090:	0013031b          	addiw	t1,t1,1 # e0001 <_tbss_end+0xdfffd>
    10000094:	00c31313          	slli	t1,t1,0xc
    10000098:	03030313          	addi	t1,t1,48
    1000009c:	00a32023          	sw	a0,0(t1)
    100000a0:	fe9ff06f          	j	10000088 <_start+0x88>
    100000a4:	00000297          	auipc	t0,0x0
    100000a8:	04028293          	addi	t0,t0,64 # 100000e4 <trap_entry>
    100000ac:	30529073          	csrw	mtvec,t0
    100000b0:	00003197          	auipc	gp,0x3
    100000b4:	fb018193          	addi	gp,gp,-80 # 10003060 <_gp>
    100000b8:	f1402573          	csrr	a0,mhartid
    100000bc:	00200593          	li	a1,2
    100000c0:	00100e13          	li	t3,1
    100000c4:	012e1393          	slli	t2,t3,0x12
    100000c8:	027502b3          	mul	t0,a0,t2
    100000cc:	10040337          	lui	t1,0x10040
    100000d0:	00530333          	add	t1,t1,t0
    100000d4:	00030213          	mv	tp,t1
    100000d8:	00730333          	add	t1,t1,t2
    100000dc:	00030113          	mv	sp,t1
    100000e0:	67c000ef          	jal	1000075c <_init>

00000000100000e4 <trap_entry>:
    100000e4:	ef010113          	addi	sp,sp,-272
    100000e8:	00113423          	sd	ra,8(sp)
    100000ec:	00213823          	sd	sp,16(sp)
    100000f0:	00313c23          	sd	gp,24(sp)
    100000f4:	02413023          	sd	tp,32(sp)
    100000f8:	02513423          	sd	t0,40(sp)
    100000fc:	02613823          	sd	t1,48(sp)
    10000100:	02713c23          	sd	t2,56(sp)
    10000104:	04813023          	sd	s0,64(sp)
    10000108:	04913423          	sd	s1,72(sp)
    1000010c:	04a13823          	sd	a0,80(sp)
    10000110:	04b13c23          	sd	a1,88(sp)
    10000114:	06c13023          	sd	a2,96(sp)
    10000118:	06d13423          	sd	a3,104(sp)
    1000011c:	06e13823          	sd	a4,112(sp)
    10000120:	06f13c23          	sd	a5,120(sp)
    10000124:	09013023          	sd	a6,128(sp)
    10000128:	09113423          	sd	a7,136(sp)
    1000012c:	09213823          	sd	s2,144(sp)
    10000130:	09313c23          	sd	s3,152(sp)
    10000134:	0b413023          	sd	s4,160(sp)
    10000138:	0b513423          	sd	s5,168(sp)
    1000013c:	0b613823          	sd	s6,176(sp)
    10000140:	0b713c23          	sd	s7,184(sp)
    10000144:	0d813023          	sd	s8,192(sp)
    10000148:	0d913423          	sd	s9,200(sp)
    1000014c:	0da13823          	sd	s10,208(sp)
    10000150:	0db13c23          	sd	s11,216(sp)
    10000154:	0fc13023          	sd	t3,224(sp)
    10000158:	0fd13423          	sd	t4,232(sp)
    1000015c:	0fe13823          	sd	t5,240(sp)
    10000160:	0ff13c23          	sd	t6,248(sp)
    10000164:	34202573          	csrr	a0,mcause
    10000168:	341025f3          	csrr	a1,mepc
    1000016c:	00010613          	mv	a2,sp
    10000170:	5ec000ef          	jal	1000075c <_init>
    10000174:	34151073          	csrw	mepc,a0
    10000178:	000022b7          	lui	t0,0x2
    1000017c:	8002829b          	addiw	t0,t0,-2048 # 1800 <_tbss_end+0x17fc>
    10000180:	3002a073          	csrs	mstatus,t0
    10000184:	00813083          	ld	ra,8(sp)
    10000188:	01013103          	ld	sp,16(sp)
    1000018c:	01813183          	ld	gp,24(sp)
    10000190:	02013203          	ld	tp,32(sp)
    10000194:	02813283          	ld	t0,40(sp)
    10000198:	03013303          	ld	t1,48(sp)
    1000019c:	03813383          	ld	t2,56(sp)
    100001a0:	04013403          	ld	s0,64(sp)
    100001a4:	04813483          	ld	s1,72(sp)
    100001a8:	05013503          	ld	a0,80(sp)
    100001ac:	05813583          	ld	a1,88(sp)
    100001b0:	06013603          	ld	a2,96(sp)
    100001b4:	06813683          	ld	a3,104(sp)
    100001b8:	07013703          	ld	a4,112(sp)
    100001bc:	07813783          	ld	a5,120(sp)
    100001c0:	08013803          	ld	a6,128(sp)
    100001c4:	08813883          	ld	a7,136(sp)
    100001c8:	09013903          	ld	s2,144(sp)
    100001cc:	09813983          	ld	s3,152(sp)
    100001d0:	0a013a03          	ld	s4,160(sp)
    100001d4:	0a813a83          	ld	s5,168(sp)
    100001d8:	0b013b03          	ld	s6,176(sp)
    100001dc:	0b813b83          	ld	s7,184(sp)
    100001e0:	0c013c03          	ld	s8,192(sp)
    100001e4:	0c813c83          	ld	s9,200(sp)
    100001e8:	0d013d03          	ld	s10,208(sp)
    100001ec:	0d813d83          	ld	s11,216(sp)
    100001f0:	0e013e03          	ld	t3,224(sp)
    100001f4:	0e813e83          	ld	t4,232(sp)
    100001f8:	0f013f03          	ld	t5,240(sp)
    100001fc:	0f813f83          	ld	t6,248(sp)
    10000200:	11010113          	addi	sp,sp,272
    10000204:	30200073          	mret

Disassembly of section .text:

0000000010000208 <barrier>:
    10000208:	0ff0000f          	fence
    1000020c:	00022703          	lw	a4,0(tp) # 0 <_tdata_begin>
    10000210:	00002697          	auipc	a3,0x2
    10000214:	65468693          	addi	a3,a3,1620 # 10002864 <count.1>
    10000218:	00100613          	li	a2,1
    1000021c:	00173713          	seqz	a4,a4
    10000220:	00e22023          	sw	a4,0(tp) # 0 <_tdata_begin>
    10000224:	0f50000f          	fence	iorw,ow
    10000228:	04c6a72f          	amoadd.w.aq	a4,a2,(a3)
    1000022c:	fff5051b          	addiw	a0,a0,-1
    10000230:	0007071b          	sext.w	a4,a4
    10000234:	02e50063          	beq	a0,a4,10000254 <barrier+0x4c>
    10000238:	00022683          	lw	a3,0(tp) # 0 <_tdata_begin>
    1000023c:	00002717          	auipc	a4,0x2
    10000240:	62470713          	addi	a4,a4,1572 # 10002860 <sense.0>
    10000244:	00072783          	lw	a5,0(a4)
    10000248:	fed79ee3          	bne	a5,a3,10000244 <barrier+0x3c>
    1000024c:	0ff0000f          	fence
    10000250:	00008067          	ret
    10000254:	00022783          	lw	a5,0(tp) # 0 <_tdata_begin>
    10000258:	00002717          	auipc	a4,0x2
    1000025c:	60072623          	sw	zero,1548(a4) # 10002864 <count.1>
    10000260:	00002717          	auipc	a4,0x2
    10000264:	60f72023          	sw	a5,1536(a4) # 10002860 <sense.0>
    10000268:	fe5ff06f          	j	1000024c <barrier+0x44>

000000001000026c <thread_entry>:
    1000026c:	fe010113          	addi	sp,sp,-32
    10000270:	00002797          	auipc	a5,0x2
    10000274:	5f878793          	addi	a5,a5,1528 # 10002868 <results_data.2>
    10000278:	00000717          	auipc	a4,0x0
    1000027c:	5b870713          	addi	a4,a4,1464 # 10000830 <input2_data>
    10000280:	00001697          	auipc	a3,0x1
    10000284:	5b068693          	addi	a3,a3,1456 # 10001830 <input1_data>
    10000288:	02000613          	li	a2,32
    1000028c:	00813823          	sd	s0,16(sp)
    10000290:	00913423          	sd	s1,8(sp)
    10000294:	00050413          	mv	s0,a0
    10000298:	00113c23          	sd	ra,24(sp)
    1000029c:	00058493          	mv	s1,a1
    100002a0:	02c000ef          	jal	100002cc <matmul>
    100002a4:	00048513          	mv	a0,s1
    100002a8:	f61ff0ef          	jal	10000208 <barrier>
    100002ac:	00040663          	beqz	s0,100002b8 <thread_entry+0x4c>
    100002b0:	00200513          	li	a0,2
    100002b4:	4a4000ef          	jal	10000758 <exit>
    100002b8:	00001597          	auipc	a1,0x1
    100002bc:	57858593          	addi	a1,a1,1400 # 10001830 <input1_data>
    100002c0:	02000513          	li	a0,32
    100002c4:	224000ef          	jal	100004e8 <syscall_print_matrix>
    100002c8:	fe9ff06f          	j	100002b0 <thread_entry+0x44>

00000000100002cc <matmul>:
    100002cc:	fe010113          	addi	sp,sp,-32
    100002d0:	00913823          	sd	s1,16(sp)
    100002d4:	02b644bb          	divw	s1,a2,a1
    100002d8:	02a48fbb          	mulw	t6,s1,a0
    100002dc:	01f484bb          	addw	s1,s1,t6
    100002e0:	0a9fd063          	bge	t6,s1,10000380 <matmul+0xb4>
    100002e4:	02cf8f3b          	mulw	t5,t6,a2
    100002e8:	00813c23          	sd	s0,24(sp)
    100002ec:	01213423          	sd	s2,8(sp)
    100002f0:	01313023          	sd	s3,0(sp)
    100002f4:	00060293          	mv	t0,a2
    100002f8:	00068393          	mv	t2,a3
    100002fc:	00070913          	mv	s2,a4
    10000300:	00078413          	mv	s0,a5
    10000304:	0006099b          	sext.w	s3,a2
    10000308:	00261e93          	slli	t4,a2,0x2
    1000030c:	08505063          	blez	t0,1000038c <matmul+0xc0>
    10000310:	005f0833          	add	a6,t5,t0
    10000314:	002f1313          	slli	t1,t5,0x2
    10000318:	00281813          	slli	a6,a6,0x2
    1000031c:	00638533          	add	a0,t2,t1
    10000320:	01038e33          	add	t3,t2,a6
    10000324:	00090893          	mv	a7,s2
    10000328:	00640333          	add	t1,s0,t1
    1000032c:	01040833          	add	a6,s0,a6
    10000330:	00088693          	mv	a3,a7
    10000334:	00030713          	mv	a4,t1
    10000338:	0006a783          	lw	a5,0(a3)
    1000033c:	00052583          	lw	a1,0(a0)
    10000340:	00072603          	lw	a2,0(a4)
    10000344:	00470713          	addi	a4,a4,4
    10000348:	02b787bb          	mulw	a5,a5,a1
    1000034c:	00468693          	addi	a3,a3,4
    10000350:	00c787bb          	addw	a5,a5,a2
    10000354:	fef72e23          	sw	a5,-4(a4)
    10000358:	fee810e3          	bne	a6,a4,10000338 <matmul+0x6c>
    1000035c:	00450513          	addi	a0,a0,4
    10000360:	01d888b3          	add	a7,a7,t4
    10000364:	fdc516e3          	bne	a0,t3,10000330 <matmul+0x64>
    10000368:	001f8f9b          	addiw	t6,t6,1
    1000036c:	013f0f3b          	addw	t5,t5,s3
    10000370:	fa9f90e3          	bne	t6,s1,10000310 <matmul+0x44>
    10000374:	01813403          	ld	s0,24(sp)
    10000378:	00813903          	ld	s2,8(sp)
    1000037c:	00013983          	ld	s3,0(sp)
    10000380:	01013483          	ld	s1,16(sp)
    10000384:	02010113          	addi	sp,sp,32
    10000388:	00008067          	ret
    1000038c:	001f8f9b          	addiw	t6,t6,1
    10000390:	013f0f3b          	addw	t5,t5,s3
    10000394:	f69f9ce3          	bne	t6,s1,1000030c <matmul+0x40>
    10000398:	fddff06f          	j	10000374 <matmul+0xa8>

000000001000039c <uart_send_integer.part.0>:
    1000039c:	08054c63          	bltz	a0,10000434 <uart_send_integer.part.0+0x98>
    100003a0:	0c050463          	beqz	a0,10000468 <uart_send_integer.part.0+0xcc>
    100003a4:	ff010113          	addi	sp,sp,-16
    100003a8:	00010693          	mv	a3,sp
    100003ac:	00068793          	mv	a5,a3
    100003b0:	00a00613          	li	a2,10
    100003b4:	02c5673b          	remw	a4,a0,a2
    100003b8:	00078593          	mv	a1,a5
    100003bc:	00178793          	addi	a5,a5,1
    100003c0:	02c5453b          	divw	a0,a0,a2
    100003c4:	0307071b          	addiw	a4,a4,48
    100003c8:	fee78fa3          	sb	a4,-1(a5)
    100003cc:	fe0514e3          	bnez	a0,100003b4 <uart_send_integer.part.0+0x18>
    100003d0:	40d587bb          	subw	a5,a1,a3
    100003d4:	0017861b          	addiw	a2,a5,1
    100003d8:	fff6079b          	addiw	a5,a2,-1
    100003dc:	fff68513          	addi	a0,a3,-1
    100003e0:	38000737          	lui	a4,0x38000
    100003e4:	0e0005b7          	lui	a1,0xe000
    100003e8:	02079793          	slli	a5,a5,0x20
    100003ec:	00c50533          	add	a0,a0,a2
    100003f0:	0207d793          	srli	a5,a5,0x20
    100003f4:	40b70713          	addi	a4,a4,1035 # 3800040b <_end+0x27ffcba3>
    100003f8:	10358593          	addi	a1,a1,259 # e000103 <_tbss_end+0xe0000ff>
    100003fc:	00c686b3          	add	a3,a3,a2
    10000400:	40f50533          	sub	a0,a0,a5
    10000404:	00271713          	slli	a4,a4,0x2
    10000408:	00459593          	slli	a1,a1,0x4
    1000040c:	fff6c603          	lbu	a2,-1(a3)
    10000410:	00072783          	lw	a5,0(a4)
    10000414:	0107f793          	andi	a5,a5,16
    10000418:	fe079ce3          	bnez	a5,10000410 <uart_send_integer.part.0+0x74>
    1000041c:	0006079b          	sext.w	a5,a2
    10000420:	00f5a023          	sw	a5,0(a1)
    10000424:	fff68693          	addi	a3,a3,-1
    10000428:	fea692e3          	bne	a3,a0,1000040c <uart_send_integer.part.0+0x70>
    1000042c:	01010113          	addi	sp,sp,16
    10000430:	00008067          	ret
    10000434:	38000737          	lui	a4,0x38000
    10000438:	40b70713          	addi	a4,a4,1035 # 3800040b <_end+0x27ffcba3>
    1000043c:	00271713          	slli	a4,a4,0x2
    10000440:	00072783          	lw	a5,0(a4)
    10000444:	0107f793          	andi	a5,a5,16
    10000448:	fe079ce3          	bnez	a5,10000440 <uart_send_integer.part.0+0xa4>
    1000044c:	0e0007b7          	lui	a5,0xe000
    10000450:	10378793          	addi	a5,a5,259 # e000103 <_tbss_end+0xe0000ff>
    10000454:	00479793          	slli	a5,a5,0x4
    10000458:	02d00713          	li	a4,45
    1000045c:	00e7a023          	sw	a4,0(a5)
    10000460:	40a0053b          	negw	a0,a0
    10000464:	f41ff06f          	j	100003a4 <uart_send_integer.part.0+0x8>
    10000468:	00008067          	ret

000000001000046c <uart_send_string>:
    1000046c:	00054683          	lbu	a3,0(a0)
    10000470:	02068e63          	beqz	a3,100004ac <uart_send_string+0x40>
    10000474:	38000737          	lui	a4,0x38000
    10000478:	0e000637          	lui	a2,0xe000
    1000047c:	40b70713          	addi	a4,a4,1035 # 3800040b <_end+0x27ffcba3>
    10000480:	10360613          	addi	a2,a2,259 # e000103 <_tbss_end+0xe0000ff>
    10000484:	00271713          	slli	a4,a4,0x2
    10000488:	00461613          	slli	a2,a2,0x4
    1000048c:	00150513          	addi	a0,a0,1
    10000490:	00072783          	lw	a5,0(a4)
    10000494:	0107f793          	andi	a5,a5,16
    10000498:	fe079ce3          	bnez	a5,10000490 <uart_send_string+0x24>
    1000049c:	0006869b          	sext.w	a3,a3
    100004a0:	00d62023          	sw	a3,0(a2)
    100004a4:	00054683          	lbu	a3,0(a0)
    100004a8:	fe0692e3          	bnez	a3,1000048c <uart_send_string+0x20>
    100004ac:	00008067          	ret

00000000100004b0 <uart_send_integer>:
    100004b0:	00050463          	beqz	a0,100004b8 <uart_send_integer+0x8>
    100004b4:	ee9ff06f          	j	1000039c <uart_send_integer.part.0>
    100004b8:	38000737          	lui	a4,0x38000
    100004bc:	40b70713          	addi	a4,a4,1035 # 3800040b <_end+0x27ffcba3>
    100004c0:	00271713          	slli	a4,a4,0x2
    100004c4:	00072783          	lw	a5,0(a4)
    100004c8:	0107f793          	andi	a5,a5,16
    100004cc:	fe079ce3          	bnez	a5,100004c4 <uart_send_integer+0x14>
    100004d0:	0e0007b7          	lui	a5,0xe000
    100004d4:	10378793          	addi	a5,a5,259 # e000103 <_tbss_end+0xe0000ff>
    100004d8:	00479793          	slli	a5,a5,0x4
    100004dc:	03000713          	li	a4,48
    100004e0:	00e7a023          	sw	a4,0(a5)
    100004e4:	00008067          	ret

00000000100004e8 <syscall_print_matrix>:
    100004e8:	38000737          	lui	a4,0x38000
    100004ec:	0e0006b7          	lui	a3,0xe000
    100004f0:	fa010113          	addi	sp,sp,-96
    100004f4:	40b70713          	addi	a4,a4,1035 # 3800040b <_end+0x27ffcba3>
    100004f8:	10368693          	addi	a3,a3,259 # e000103 <_tbss_end+0xe0000ff>
    100004fc:	03513423          	sd	s5,40(sp)
    10000500:	04113c23          	sd	ra,88(sp)
    10000504:	00050a93          	mv	s5,a0
    10000508:	05200613          	li	a2,82
    1000050c:	00000517          	auipc	a0,0x0
    10000510:	2fc50513          	addi	a0,a0,764 # 10000808 <main+0x28>
    10000514:	00271713          	slli	a4,a4,0x2
    10000518:	00469693          	slli	a3,a3,0x4
    1000051c:	00150513          	addi	a0,a0,1
    10000520:	00072783          	lw	a5,0(a4)
    10000524:	0107f793          	andi	a5,a5,16
    10000528:	fe079ce3          	bnez	a5,10000520 <syscall_print_matrix+0x38>
    1000052c:	0006061b          	sext.w	a2,a2
    10000530:	00c6a023          	sw	a2,0(a3)
    10000534:	00054603          	lbu	a2,0(a0)
    10000538:	fe0612e3          	bnez	a2,1000051c <syscall_print_matrix+0x34>
    1000053c:	0f505863          	blez	s5,1000062c <syscall_print_matrix+0x144>
    10000540:	04813823          	sd	s0,80(sp)
    10000544:	03313c23          	sd	s3,56(sp)
    10000548:	38000437          	lui	s0,0x38000
    1000054c:	0e0009b7          	lui	s3,0xe000
    10000550:	40b40413          	addi	s0,s0,1035 # 3800040b <_end+0x27ffcba3>
    10000554:	10398993          	addi	s3,s3,259 # e000103 <_tbss_end+0xe0000ff>
    10000558:	03413823          	sd	s4,48(sp)
    1000055c:	03613023          	sd	s6,32(sp)
    10000560:	01713c23          	sd	s7,24(sp)
    10000564:	01813823          	sd	s8,16(sp)
    10000568:	01913423          	sd	s9,8(sp)
    1000056c:	04913423          	sd	s1,72(sp)
    10000570:	05213023          	sd	s2,64(sp)
    10000574:	00058c93          	mv	s9,a1
    10000578:	002a9b93          	slli	s7,s5,0x2
    1000057c:	00000c13          	li	s8,0
    10000580:	00241413          	slli	s0,s0,0x2
    10000584:	00499993          	slli	s3,s3,0x4
    10000588:	03000a13          	li	s4,48
    1000058c:	02000b13          	li	s6,32
    10000590:	000c8493          	mv	s1,s9
    10000594:	0004a503          	lw	a0,0(s1)
    10000598:	00000913          	li	s2,0
    1000059c:	02050863          	beqz	a0,100005cc <syscall_print_matrix+0xe4>
    100005a0:	dfdff0ef          	jal	1000039c <uart_send_integer.part.0>
    100005a4:	00042783          	lw	a5,0(s0)
    100005a8:	0107f793          	andi	a5,a5,16
    100005ac:	fe079ce3          	bnez	a5,100005a4 <syscall_print_matrix+0xbc>
    100005b0:	0169a023          	sw	s6,0(s3)
    100005b4:	0019079b          	addiw	a5,s2,1
    100005b8:	017484b3          	add	s1,s1,s7
    100005bc:	02fa8263          	beq	s5,a5,100005e0 <syscall_print_matrix+0xf8>
    100005c0:	0004a503          	lw	a0,0(s1)
    100005c4:	00078913          	mv	s2,a5
    100005c8:	fc051ce3          	bnez	a0,100005a0 <syscall_print_matrix+0xb8>
    100005cc:	00042783          	lw	a5,0(s0)
    100005d0:	0107f793          	andi	a5,a5,16
    100005d4:	fe079ce3          	bnez	a5,100005cc <syscall_print_matrix+0xe4>
    100005d8:	0149a023          	sw	s4,0(s3)
    100005dc:	fc9ff06f          	j	100005a4 <syscall_print_matrix+0xbc>
    100005e0:	00042783          	lw	a5,0(s0)
    100005e4:	0107f793          	andi	a5,a5,16
    100005e8:	fe079ce3          	bnez	a5,100005e0 <syscall_print_matrix+0xf8>
    100005ec:	00a00793          	li	a5,10
    100005f0:	00f9a023          	sw	a5,0(s3)
    100005f4:	004c8c93          	addi	s9,s9,4
    100005f8:	001c079b          	addiw	a5,s8,1
    100005fc:	012c0663          	beq	s8,s2,10000608 <syscall_print_matrix+0x120>
    10000600:	00078c13          	mv	s8,a5
    10000604:	f8dff06f          	j	10000590 <syscall_print_matrix+0xa8>
    10000608:	05013403          	ld	s0,80(sp)
    1000060c:	04813483          	ld	s1,72(sp)
    10000610:	04013903          	ld	s2,64(sp)
    10000614:	03813983          	ld	s3,56(sp)
    10000618:	03013a03          	ld	s4,48(sp)
    1000061c:	02013b03          	ld	s6,32(sp)
    10000620:	01813b83          	ld	s7,24(sp)
    10000624:	01013c03          	ld	s8,16(sp)
    10000628:	00813c83          	ld	s9,8(sp)
    1000062c:	38000737          	lui	a4,0x38000
    10000630:	40b70713          	addi	a4,a4,1035 # 3800040b <_end+0x27ffcba3>
    10000634:	00271713          	slli	a4,a4,0x2
    10000638:	00072783          	lw	a5,0(a4)
    1000063c:	0107f793          	andi	a5,a5,16
    10000640:	fe079ce3          	bnez	a5,10000638 <syscall_print_matrix+0x150>
    10000644:	0e0007b7          	lui	a5,0xe000
    10000648:	05813083          	ld	ra,88(sp)
    1000064c:	10378793          	addi	a5,a5,259 # e000103 <_tbss_end+0xe0000ff>
    10000650:	00479793          	slli	a5,a5,0x4
    10000654:	00a00713          	li	a4,10
    10000658:	00e7a023          	sw	a4,0(a5)
    1000065c:	02813a83          	ld	s5,40(sp)
    10000660:	06010113          	addi	sp,sp,96
    10000664:	00008067          	ret
    10000668:	00050463          	beqz	a0,10000670 <syscall_print_matrix+0x188>
    1000066c:	0000006f          	j	1000066c <syscall_print_matrix+0x184>
    10000670:	00008067          	ret

0000000010000674 <memcpy>:
    10000674:	00c5e7b3          	or	a5,a1,a2
    10000678:	00f567b3          	or	a5,a0,a5
    1000067c:	0077f793          	andi	a5,a5,7
    10000680:	00c506b3          	add	a3,a0,a2
    10000684:	02078463          	beqz	a5,100006ac <memcpy+0x38>
    10000688:	00c58633          	add	a2,a1,a2
    1000068c:	00050793          	mv	a5,a0
    10000690:	02d57e63          	bgeu	a0,a3,100006cc <memcpy+0x58>
    10000694:	0005c703          	lbu	a4,0(a1)
    10000698:	00158593          	addi	a1,a1,1
    1000069c:	00178793          	addi	a5,a5,1
    100006a0:	fee78fa3          	sb	a4,-1(a5)
    100006a4:	feb618e3          	bne	a2,a1,10000694 <memcpy+0x20>
    100006a8:	00008067          	ret
    100006ac:	fed57ee3          	bgeu	a0,a3,100006a8 <memcpy+0x34>
    100006b0:	00050793          	mv	a5,a0
    100006b4:	0005b703          	ld	a4,0(a1)
    100006b8:	00878793          	addi	a5,a5,8
    100006bc:	00858593          	addi	a1,a1,8
    100006c0:	fee7bc23          	sd	a4,-8(a5)
    100006c4:	fed7e8e3          	bltu	a5,a3,100006b4 <memcpy+0x40>
    100006c8:	00008067          	ret
    100006cc:	00008067          	ret

00000000100006d0 <memset>:
    100006d0:	ff010113          	addi	sp,sp,-16
    100006d4:	00c567b3          	or	a5,a0,a2
    100006d8:	00813023          	sd	s0,0(sp)
    100006dc:	00113423          	sd	ra,8(sp)
    100006e0:	0077f793          	andi	a5,a5,7
    100006e4:	00050413          	mv	s0,a0
    100006e8:	00c50733          	add	a4,a0,a2
    100006ec:	02078263          	beqz	a5,10000710 <memset+0x40>
    100006f0:	00e57663          	bgeu	a0,a4,100006fc <memset+0x2c>
    100006f4:	0ff5f593          	zext.b	a1,a1
    100006f8:	fd9ff0ef          	jal	100006d0 <memset>
    100006fc:	00813083          	ld	ra,8(sp)
    10000700:	00040513          	mv	a0,s0
    10000704:	00013403          	ld	s0,0(sp)
    10000708:	01010113          	addi	sp,sp,16
    1000070c:	00008067          	ret
    10000710:	010107b7          	lui	a5,0x1010
    10000714:	10178793          	addi	a5,a5,257 # 1010101 <_tbss_end+0x10100fd>
    10000718:	01079793          	slli	a5,a5,0x10
    1000071c:	10178793          	addi	a5,a5,257
    10000720:	01079793          	slli	a5,a5,0x10
    10000724:	0ff5f593          	zext.b	a1,a1
    10000728:	10178793          	addi	a5,a5,257
    1000072c:	02f585b3          	mul	a1,a1,a5
    10000730:	fce576e3          	bgeu	a0,a4,100006fc <memset+0x2c>
    10000734:	00050793          	mv	a5,a0
    10000738:	00878793          	addi	a5,a5,8
    1000073c:	feb7bc23          	sd	a1,-8(a5)
    10000740:	fee7ece3          	bltu	a5,a4,10000738 <memset+0x68>
    10000744:	00813083          	ld	ra,8(sp)
    10000748:	00040513          	mv	a0,s0
    1000074c:	00013403          	ld	s0,0(sp)
    10000750:	01010113          	addi	sp,sp,16
    10000754:	00008067          	ret

0000000010000758 <exit>:
    10000758:	0000006f          	j	10000758 <exit>

000000001000075c <_init>:
    1000075c:	fd010113          	addi	sp,sp,-48
    10000760:	02813023          	sd	s0,32(sp)
    10000764:	00913c23          	sd	s1,24(sp)
    10000768:	00002417          	auipc	s0,0x2
    1000076c:	0d043403          	ld	s0,208(s0) # 10002838 <_GLOBAL_OFFSET_TABLE_+0x8>
    10000770:	00002497          	auipc	s1,0x2
    10000774:	0d04b483          	ld	s1,208(s1) # 10002840 <_GLOBAL_OFFSET_TABLE_+0x10>
    10000778:	01213823          	sd	s2,16(sp)
    1000077c:	01313423          	sd	s3,8(sp)
    10000780:	409404b3          	sub	s1,s0,s1
    10000784:	00050913          	mv	s2,a0
    10000788:	00058993          	mv	s3,a1
    1000078c:	00020513          	mv	a0,tp
    10000790:	00048613          	mv	a2,s1
    10000794:	00003597          	auipc	a1,0x3
    10000798:	0d458593          	addi	a1,a1,212 # 10003868 <_end>
    1000079c:	02113423          	sd	ra,40(sp)
    100007a0:	01413023          	sd	s4,0(sp)
    100007a4:	00020a13          	mv	s4,tp
    100007a8:	ecdff0ef          	jal	10000674 <memcpy>
    100007ac:	00002617          	auipc	a2,0x2
    100007b0:	09c63603          	ld	a2,156(a2) # 10002848 <_GLOBAL_OFFSET_TABLE_+0x18>
    100007b4:	00000593          	li	a1,0
    100007b8:	009a0533          	add	a0,s4,s1
    100007bc:	40860633          	sub	a2,a2,s0
    100007c0:	f11ff0ef          	jal	100006d0 <memset>
    100007c4:	00098593          	mv	a1,s3
    100007c8:	00090513          	mv	a0,s2
    100007cc:	aa1ff0ef          	jal	1000026c <thread_entry>
    100007d0:	00000593          	li	a1,0
    100007d4:	00000513          	li	a0,0
    100007d8:	008000ef          	jal	100007e0 <main>
    100007dc:	0000006f          	j	100007dc <_init+0x80>

Disassembly of section .text.startup:

00000000100007e0 <main>:
    100007e0:	ff010113          	addi	sp,sp,-16
    100007e4:	00000517          	auipc	a0,0x0
    100007e8:	03450513          	addi	a0,a0,52 # 10000818 <main+0x38>
    100007ec:	00113423          	sd	ra,8(sp)
    100007f0:	c7dff0ef          	jal	1000046c <uart_send_string>
    100007f4:	00813083          	ld	ra,8(sp)
    100007f8:	fff00513          	li	a0,-1
    100007fc:	01010113          	addi	sp,sp,16
    10000800:	00008067          	ret
