
mt-mask-sfilter.riscv:     file format elf64-littleriscv


Disassembly of section .text.init:

0000000000000000 <_start>:
   0:	00001197          	auipc	gp,0x1
   4:	2a818193          	addi	gp,gp,680 # 12a8 <_gp>
   8:	00000093          	li	ra,0
   c:	00000113          	li	sp,0
  10:	00000193          	li	gp,0
  14:	00000213          	li	tp,0
  18:	00000293          	li	t0,0
  1c:	00000313          	li	t1,0
  20:	00000393          	li	t2,0
  24:	00000413          	li	s0,0
  28:	00000493          	li	s1,0
  2c:	00000513          	li	a0,0
  30:	00000593          	li	a1,0
  34:	00000613          	li	a2,0
  38:	00000693          	li	a3,0
  3c:	00000713          	li	a4,0
  40:	00000793          	li	a5,0
  44:	00000813          	li	a6,0
  48:	00000893          	li	a7,0
  4c:	00000913          	li	s2,0
  50:	00000993          	li	s3,0
  54:	00000a13          	li	s4,0
  58:	00000a93          	li	s5,0
  5c:	00000b13          	li	s6,0
  60:	00000b93          	li	s7,0
  64:	00000c13          	li	s8,0
  68:	00000c93          	li	s9,0
  6c:	00000d13          	li	s10,0
  70:	00000d93          	li	s11,0
  74:	00000e13          	li	t3,0
  78:	00000e93          	li	t4,0
  7c:	00000f13          	li	t5,0
  80:	00000f93          	li	t6,0
  84:	00100293          	li	t0,1
  88:	01f29293          	slli	t0,t0,0x1f
  8c:	0202d063          	bgez	t0,ac <_start+0xac>
  90:	00100513          	li	a0,1
  94:	000e0337          	lui	t1,0xe0
  98:	0013031b          	addiw	t1,t1,1 # e0001 <count.1+0xd1545>
  9c:	00c31313          	slli	t1,t1,0xc
  a0:	03030313          	addi	t1,t1,48
  a4:	00a32023          	sw	a0,0(t1)
  a8:	fe9ff06f          	j	90 <_start+0x90>
  ac:	00000297          	auipc	t0,0x0
  b0:	07828293          	addi	t0,t0,120 # 124 <trap_entry>
  b4:	30529073          	csrw	mtvec,t0
  b8:	f1402573          	csrr	a0,mhartid
  bc:	02051863          	bnez	a0,ec <sync_all_harts>
  c0:	0000bf17          	auipc	t5,0xb
  c4:	9f8f0f13          	addi	t5,t5,-1544 # aab8 <results_data.2>
  c8:	0000ff97          	auipc	t6,0xf
  cc:	9f0f8f93          	addi	t6,t6,-1552 # eab8 <sense.0>

00000000000000d0 <clear_bss>:
  d0:	01ff5863          	bge	t5,t6,e0 <finish_bss>
  d4:	000f2023          	sw	zero,0(t5)
  d8:	004f0f13          	addi	t5,t5,4
  dc:	ff5ff06f          	j	d0 <clear_bss>

00000000000000e0 <finish_bss>:
  e0:	0000b597          	auipc	a1,0xb
  e4:	9d058593          	addi	a1,a1,-1584 # aab0 <hart_init_sync>
  e8:	0005a023          	sw	zero,0(a1)

00000000000000ec <sync_all_harts>:
  ec:	0000b597          	auipc	a1,0xb
  f0:	9c458593          	addi	a1,a1,-1596 # aab0 <hart_init_sync>
  f4:	0005a603          	lw	a2,0(a1)
  f8:	fe061ae3          	bnez	a2,ec <sync_all_harts>
  fc:	00200593          	li	a1,2
 100:	00100e13          	li	t3,1
 104:	012e1393          	slli	t2,t3,0x12
 108:	027502b3          	mul	t0,a0,t2
 10c:	10040337          	lui	t1,0x10040
 110:	00530333          	add	t1,t1,t0
 114:	00030213          	mv	tp,t1
 118:	00730333          	add	t1,t1,t2
 11c:	00030113          	mv	sp,t1
 120:	188000ef          	jal	2a8 <thread_entry>

0000000000000124 <trap_entry>:
 124:	ef010113          	addi	sp,sp,-272
 128:	00113423          	sd	ra,8(sp)
 12c:	00213823          	sd	sp,16(sp)
 130:	00313c23          	sd	gp,24(sp)
 134:	02413023          	sd	tp,32(sp)
 138:	02513423          	sd	t0,40(sp)
 13c:	02613823          	sd	t1,48(sp)
 140:	02713c23          	sd	t2,56(sp)
 144:	04813023          	sd	s0,64(sp)
 148:	04913423          	sd	s1,72(sp)
 14c:	04a13823          	sd	a0,80(sp)
 150:	04b13c23          	sd	a1,88(sp)
 154:	06c13023          	sd	a2,96(sp)
 158:	06d13423          	sd	a3,104(sp)
 15c:	06e13823          	sd	a4,112(sp)
 160:	06f13c23          	sd	a5,120(sp)
 164:	09013023          	sd	a6,128(sp)
 168:	09113423          	sd	a7,136(sp)
 16c:	09213823          	sd	s2,144(sp)
 170:	09313c23          	sd	s3,152(sp)
 174:	0b413023          	sd	s4,160(sp)
 178:	0b513423          	sd	s5,168(sp)
 17c:	0b613823          	sd	s6,176(sp)
 180:	0b713c23          	sd	s7,184(sp)
 184:	0d813023          	sd	s8,192(sp)
 188:	0d913423          	sd	s9,200(sp)
 18c:	0da13823          	sd	s10,208(sp)
 190:	0db13c23          	sd	s11,216(sp)
 194:	0fc13023          	sd	t3,224(sp)
 198:	0fd13423          	sd	t4,232(sp)
 19c:	0fe13823          	sd	t5,240(sp)
 1a0:	0ff13c23          	sd	t6,248(sp)
 1a4:	34202573          	csrr	a0,mcause
 1a8:	341025f3          	csrr	a1,mepc
 1ac:	00010613          	mv	a2,sp
 1b0:	0f8000ef          	jal	2a8 <thread_entry>
 1b4:	34151073          	csrw	mepc,a0
 1b8:	000022b7          	lui	t0,0x2
 1bc:	8002829b          	addiw	t0,t0,-2048 # 1800 <_gp+0x558>
 1c0:	3002a073          	csrs	mstatus,t0
 1c4:	00813083          	ld	ra,8(sp)
 1c8:	01013103          	ld	sp,16(sp)
 1cc:	01813183          	ld	gp,24(sp)
 1d0:	02013203          	ld	tp,32(sp)
 1d4:	02813283          	ld	t0,40(sp)
 1d8:	03013303          	ld	t1,48(sp)
 1dc:	03813383          	ld	t2,56(sp)
 1e0:	04013403          	ld	s0,64(sp)
 1e4:	04813483          	ld	s1,72(sp)
 1e8:	05013503          	ld	a0,80(sp)
 1ec:	05813583          	ld	a1,88(sp)
 1f0:	06013603          	ld	a2,96(sp)
 1f4:	06813683          	ld	a3,104(sp)
 1f8:	07013703          	ld	a4,112(sp)
 1fc:	07813783          	ld	a5,120(sp)
 200:	08013803          	ld	a6,128(sp)
 204:	08813883          	ld	a7,136(sp)
 208:	09013903          	ld	s2,144(sp)
 20c:	09813983          	ld	s3,152(sp)
 210:	0a013a03          	ld	s4,160(sp)
 214:	0a813a83          	ld	s5,168(sp)
 218:	0b013b03          	ld	s6,176(sp)
 21c:	0b813b83          	ld	s7,184(sp)
 220:	0c013c03          	ld	s8,192(sp)
 224:	0c813c83          	ld	s9,200(sp)
 228:	0d013d03          	ld	s10,208(sp)
 22c:	0d813d83          	ld	s11,216(sp)
 230:	0e013e03          	ld	t3,224(sp)
 234:	0e813e83          	ld	t4,232(sp)
 238:	0f013f03          	ld	t5,240(sp)
 23c:	0f813f83          	ld	t6,248(sp)
 240:	11010113          	addi	sp,sp,272
 244:	30200073          	mret

Disassembly of section .text:

0000000000000248 <barrier>:
 248:	0ff0000f          	fence
 24c:	00022703          	lw	a4,0(tp) # 0 <_start>
 250:	00100693          	li	a3,1
 254:	00173713          	seqz	a4,a4
 258:	00e22023          	sw	a4,0(tp) # 0 <_start>
 25c:	0000f717          	auipc	a4,0xf
 260:	86070713          	addi	a4,a4,-1952 # eabc <count.1>
 264:	06d7272f          	amoadd.w.aqrl	a4,a3,(a4)
 268:	0007071b          	sext.w	a4,a4
 26c:	fff5051b          	addiw	a0,a0,-1
 270:	02e50063          	beq	a0,a4,290 <barrier+0x48>
 274:	00022683          	lw	a3,0(tp) # 0 <_start>
 278:	0000f717          	auipc	a4,0xf
 27c:	84070713          	addi	a4,a4,-1984 # eab8 <sense.0>
 280:	00072783          	lw	a5,0(a4)
 284:	fed79ee3          	bne	a5,a3,280 <barrier+0x38>
 288:	0ff0000f          	fence
 28c:	00008067          	ret
 290:	00022783          	lw	a5,0(tp) # 0 <_start>
 294:	0000f717          	auipc	a4,0xf
 298:	82072423          	sw	zero,-2008(a4) # eabc <count.1>
 29c:	0000f717          	auipc	a4,0xf
 2a0:	80f72e23          	sw	a5,-2020(a4) # eab8 <sense.0>
 2a4:	fe5ff06f          	j	288 <barrier+0x40>

00000000000002a8 <thread_entry>:
 2a8:	fa010113          	addi	sp,sp,-96
 2ac:	00100793          	li	a5,1
 2b0:	02f13823          	sd	a5,48(sp)
 2b4:	02f13423          	sd	a5,40(sp)
 2b8:	02f13023          	sd	a5,32(sp)
 2bc:	00f13c23          	sd	a5,24(sp)
 2c0:	00f13823          	sd	a5,16(sp)
 2c4:	00f13423          	sd	a5,8(sp)
 2c8:	00f13023          	sd	a5,0(sp)
 2cc:	00100893          	li	a7,1
 2d0:	00100813          	li	a6,1
 2d4:	04000793          	li	a5,64
 2d8:	00004717          	auipc	a4,0x4
 2dc:	7d870713          	addi	a4,a4,2008 # 4ab0 <mask>
 2e0:	0000a697          	auipc	a3,0xa
 2e4:	7d868693          	addi	a3,a3,2008 # aab8 <results_data.2>
 2e8:	00006617          	auipc	a2,0x6
 2ec:	7c860613          	addi	a2,a2,1992 # 6ab0 <input>
 2f0:	04813823          	sd	s0,80(sp)
 2f4:	04913423          	sd	s1,72(sp)
 2f8:	00050413          	mv	s0,a0
 2fc:	04113c23          	sd	ra,88(sp)
 300:	00058493          	mv	s1,a1
 304:	09c000ef          	jal	3a0 <mask_sfilter>
 308:	00048513          	mv	a0,s1
 30c:	f3dff0ef          	jal	248 <barrier>
 310:	00040663          	beqz	s0,31c <thread_entry+0x74>
 314:	00200513          	li	a0,2
 318:	700000ef          	jal	a18 <exit>
 31c:	00000517          	auipc	a0,0x0
 320:	72450513          	addi	a0,a0,1828 # a40 <main+0x24>
 324:	3b8000ef          	jal	6dc <uart_send_string>
 328:	0000a717          	auipc	a4,0xa
 32c:	79070713          	addi	a4,a4,1936 # aab8 <results_data.2>
 330:	00000797          	auipc	a5,0x0
 334:	78078793          	addi	a5,a5,1920 # ab0 <verify_data>
 338:	00000513          	li	a0,0
 33c:	000018b7          	lui	a7,0x1
 340:	0180006f          	j	358 <thread_entry+0xb0>
 344:	0025051b          	addiw	a0,a0,2
 348:	03069663          	bne	a3,a6,374 <thread_entry+0xcc>
 34c:	00870713          	addi	a4,a4,8
 350:	00878793          	addi	a5,a5,8
 354:	05150263          	beq	a0,a7,398 <thread_entry+0xf0>
 358:	00072603          	lw	a2,0(a4)
 35c:	0007a583          	lw	a1,0(a5)
 360:	00472683          	lw	a3,4(a4)
 364:	0047a803          	lw	a6,4(a5)
 368:	0006869b          	sext.w	a3,a3
 36c:	fcc58ce3          	beq	a1,a2,344 <thread_entry+0x9c>
 370:	0015051b          	addiw	a0,a0,1
 374:	3ac000ef          	jal	720 <uart_send_integer>
 378:	00000517          	auipc	a0,0x0
 37c:	6f050513          	addi	a0,a0,1776 # a68 <main+0x4c>
 380:	35c000ef          	jal	6dc <uart_send_string>
 384:	0000a597          	auipc	a1,0xa
 388:	73458593          	addi	a1,a1,1844 # aab8 <results_data.2>
 38c:	04000513          	li	a0,64
 390:	3c8000ef          	jal	758 <syscall_print_matrix>
 394:	f81ff06f          	j	314 <thread_entry+0x6c>
 398:	00000513          	li	a0,0
 39c:	fd9ff06f          	j	374 <thread_entry+0xcc>

00000000000003a0 <mask_sfilter>:
 3a0:	02b7c5bb          	divw	a1,a5,a1
 3a4:	f4010113          	addi	sp,sp,-192
 3a8:	0c012303          	lw	t1,192(sp)
 3ac:	0a913823          	sd	s1,176(sp)
 3b0:	07b13023          	sd	s11,96(sp)
 3b4:	00613823          	sd	t1,16(sp)
 3b8:	0c812303          	lw	t1,200(sp)
 3bc:	01013023          	sd	a6,0(sp)
 3c0:	01113423          	sd	a7,8(sp)
 3c4:	00613c23          	sd	t1,24(sp)
 3c8:	0d012303          	lw	t1,208(sp)
 3cc:	0f012d83          	lw	s11,240(sp)
 3d0:	02613023          	sd	t1,32(sp)
 3d4:	0d812303          	lw	t1,216(sp)
 3d8:	02613423          	sd	t1,40(sp)
 3dc:	0e012303          	lw	t1,224(sp)
 3e0:	02613823          	sd	t1,48(sp)
 3e4:	0e812303          	lw	t1,232(sp)
 3e8:	02613c23          	sd	t1,56(sp)
 3ec:	02a584bb          	mulw	s1,a1,a0
 3f0:	0095883b          	addw	a6,a1,s1
 3f4:	0904de63          	bge	s1,a6,490 <mask_sfilter+0xf0>
 3f8:	09613423          	sd	s6,136(sp)
 3fc:	00070313          	mv	t1,a4
 400:	fff48b1b          	addiw	s6,s1,-1
 404:	0014871b          	addiw	a4,s1,1
 408:	fff7859b          	addiw	a1,a5,-1
 40c:	02fb0b3b          	mulw	s6,s6,a5
 410:	0b213423          	sd	s2,168(sp)
 414:	09713023          	sd	s7,128(sp)
 418:	00078b9b          	sext.w	s7,a5
 41c:	0a813c23          	sd	s0,184(sp)
 420:	0b313023          	sd	s3,160(sp)
 424:	09413c23          	sd	s4,152(sp)
 428:	09513823          	sd	s5,144(sp)
 42c:	07813c23          	sd	s8,120(sp)
 430:	07913823          	sd	s9,112(sp)
 434:	02f4893b          	mulw	s2,s1,a5
 438:	07a13423          	sd	s10,104(sp)
 43c:	00080413          	mv	s0,a6
 440:	00058f13          	mv	t5,a1
 444:	05b13023          	sd	s11,64(sp)
 448:	02f707bb          	mulw	a5,a4,a5
 44c:	01e48463          	beq	s1,t5,454 <mask_sfilter+0xb4>
 450:	04049863          	bnez	s1,4a0 <mask_sfilter+0x100>
 454:	0014849b          	addiw	s1,s1,1
 458:	0179093b          	addw	s2,s2,s7
 45c:	016b8b3b          	addw	s6,s7,s6
 460:	00fb87bb          	addw	a5,s7,a5
 464:	fe8494e3          	bne	s1,s0,44c <mask_sfilter+0xac>
 468:	0b813403          	ld	s0,184(sp)
 46c:	0a813903          	ld	s2,168(sp)
 470:	0a013983          	ld	s3,160(sp)
 474:	09813a03          	ld	s4,152(sp)
 478:	09013a83          	ld	s5,144(sp)
 47c:	08813b03          	ld	s6,136(sp)
 480:	08013b83          	ld	s7,128(sp)
 484:	07813c03          	ld	s8,120(sp)
 488:	07013c83          	ld	s9,112(sp)
 48c:	06813d03          	ld	s10,104(sp)
 490:	0b013483          	ld	s1,176(sp)
 494:	06013d83          	ld	s11,96(sp)
 498:	0c010113          	addi	sp,sp,192
 49c:	00008067          	ret
 4a0:	00100713          	li	a4,1
 4a4:	fbe758e3          	bge	a4,t5,454 <mask_sfilter+0xb4>
 4a8:	00191393          	slli	t2,s2,0x1
 4ac:	00190f93          	addi	t6,s2,1
 4b0:	00290c1b          	addiw	s8,s2,2
 4b4:	00178a9b          	addiw	s5,a5,1
 4b8:	00278a1b          	addiw	s4,a5,2
 4bc:	007303b3          	add	t2,t1,t2
 4c0:	002f9f93          	slli	t6,t6,0x2
 4c4:	000b0713          	mv	a4,s6
 4c8:	41690dbb          	subw	s11,s2,s6
 4cc:	416c0c3b          	subw	s8,s8,s6
 4d0:	41678d3b          	subw	s10,a5,s6
 4d4:	416a8abb          	subw	s5,s5,s6
 4d8:	416a0a3b          	subw	s4,s4,s6
 4dc:	ffe90c9b          	addiw	s9,s2,-2
 4e0:	04913423          	sd	s1,72(sp)
 4e4:	04813823          	sd	s0,80(sp)
 4e8:	05e13c23          	sd	t5,88(sp)
 4ec:	01f602b3          	add	t0,a2,t6
 4f0:	00239983          	lh	s3,2(t2)
 4f4:	00070f1b          	sext.w	t5,a4
 4f8:	00270e9b          	addiw	t4,a4,2
 4fc:	00ed8e3b          	addw	t3,s11,a4
 500:	00ec08bb          	addw	a7,s8,a4
 504:	00ed083b          	addw	a6,s10,a4
 508:	00ea853b          	addw	a0,s5,a4
 50c:	00ea05bb          	addw	a1,s4,a4
 510:	0002a403          	lw	s0,0(t0)
 514:	0017029b          	addiw	t0,a4,1
 518:	002f1f13          	slli	t5,t5,0x2
 51c:	002e9e93          	slli	t4,t4,0x2
 520:	002e1e13          	slli	t3,t3,0x2
 524:	00289893          	slli	a7,a7,0x2
 528:	00281813          	slli	a6,a6,0x2
 52c:	00251513          	slli	a0,a0,0x2
 530:	00259593          	slli	a1,a1,0x2
 534:	00028713          	mv	a4,t0
 538:	00229293          	slli	t0,t0,0x2
 53c:	01e60f33          	add	t5,a2,t5
 540:	01d60eb3          	add	t4,a2,t4
 544:	01c60e33          	add	t3,a2,t3
 548:	011608b3          	add	a7,a2,a7
 54c:	01060833          	add	a6,a2,a6
 550:	00a60533          	add	a0,a2,a0
 554:	00b605b3          	add	a1,a2,a1
 558:	01f684b3          	add	s1,a3,t6
 55c:	005602b3          	add	t0,a2,t0
 560:	08098663          	beqz	s3,5ec <mask_sfilter+0x24c>
 564:	00813983          	ld	s3,8(sp)
 568:	0002a283          	lw	t0,0(t0)
 56c:	000f2f03          	lw	t5,0(t5)
 570:	000eae83          	lw	t4,0(t4)
 574:	033282bb          	mulw	t0,t0,s3
 578:	00013983          	ld	s3,0(sp)
 57c:	000e2e03          	lw	t3,0(t3)
 580:	0008a883          	lw	a7,0(a7) # 1000 <verify_data+0x550>
 584:	00082803          	lw	a6,0(a6)
 588:	00052503          	lw	a0,0(a0)
 58c:	0005a583          	lw	a1,0(a1)
 590:	033f0f3b          	mulw	t5,t5,s3
 594:	01013983          	ld	s3,16(sp)
 598:	01e28f3b          	addw	t5,t0,t5
 59c:	01813283          	ld	t0,24(sp)
 5a0:	033e8ebb          	mulw	t4,t4,s3
 5a4:	025e0e3b          	mulw	t3,t3,t0
 5a8:	01df0f3b          	addw	t5,t5,t4
 5ac:	02013e83          	ld	t4,32(sp)
 5b0:	01cf0f3b          	addw	t5,t5,t3
 5b4:	02813e03          	ld	t3,40(sp)
 5b8:	028e843b          	mulw	s0,t4,s0
 5bc:	03c888bb          	mulw	a7,a7,t3
 5c0:	03013e03          	ld	t3,48(sp)
 5c4:	008f0f3b          	addw	t5,t5,s0
 5c8:	03c8083b          	mulw	a6,a6,t3
 5cc:	011f0f3b          	addw	t5,t5,a7
 5d0:	03813883          	ld	a7,56(sp)
 5d4:	010f0f3b          	addw	t5,t5,a6
 5d8:	04013803          	ld	a6,64(sp)
 5dc:	0315053b          	mulw	a0,a0,a7
 5e0:	030585bb          	mulw	a1,a1,a6
 5e4:	00af0f3b          	addw	t5,t5,a0
 5e8:	00bf043b          	addw	s0,t5,a1
 5ec:	0084a023          	sw	s0,0(s1)
 5f0:	00238393          	addi	t2,t2,2
 5f4:	004f8f93          	addi	t6,t6,4
 5f8:	eeec9ae3          	bne	s9,a4,4ec <mask_sfilter+0x14c>
 5fc:	04813483          	ld	s1,72(sp)
 600:	05013403          	ld	s0,80(sp)
 604:	05813f03          	ld	t5,88(sp)
 608:	e4dff06f          	j	454 <mask_sfilter+0xb4>

000000000000060c <uart_send_integer.part.0>:
 60c:	08054c63          	bltz	a0,6a4 <uart_send_integer.part.0+0x98>
 610:	0c050463          	beqz	a0,6d8 <uart_send_integer.part.0+0xcc>
 614:	ff010113          	addi	sp,sp,-16
 618:	00010693          	mv	a3,sp
 61c:	00068793          	mv	a5,a3
 620:	00a00613          	li	a2,10
 624:	02c5673b          	remw	a4,a0,a2
 628:	00078593          	mv	a1,a5
 62c:	00178793          	addi	a5,a5,1
 630:	02c5453b          	divw	a0,a0,a2
 634:	0307071b          	addiw	a4,a4,48
 638:	fee78fa3          	sb	a4,-1(a5)
 63c:	fe0514e3          	bnez	a0,624 <uart_send_integer.part.0+0x18>
 640:	40d587bb          	subw	a5,a1,a3
 644:	0017861b          	addiw	a2,a5,1
 648:	fff6079b          	addiw	a5,a2,-1
 64c:	fff68513          	addi	a0,a3,-1
 650:	38000737          	lui	a4,0x38000
 654:	0e0005b7          	lui	a1,0xe000
 658:	02079793          	slli	a5,a5,0x20
 65c:	00c50533          	add	a0,a0,a2
 660:	0207d793          	srli	a5,a5,0x20
 664:	40b70713          	addi	a4,a4,1035 # 3800040b <count.1+0x37ff194f>
 668:	10358593          	addi	a1,a1,259 # e000103 <count.1+0xdff1647>
 66c:	00c686b3          	add	a3,a3,a2
 670:	40f50533          	sub	a0,a0,a5
 674:	00271713          	slli	a4,a4,0x2
 678:	00459593          	slli	a1,a1,0x4
 67c:	fff6c603          	lbu	a2,-1(a3)
 680:	00072783          	lw	a5,0(a4)
 684:	0107f793          	andi	a5,a5,16
 688:	fe079ce3          	bnez	a5,680 <uart_send_integer.part.0+0x74>
 68c:	0006079b          	sext.w	a5,a2
 690:	00f5a023          	sw	a5,0(a1)
 694:	fff68693          	addi	a3,a3,-1
 698:	fea692e3          	bne	a3,a0,67c <uart_send_integer.part.0+0x70>
 69c:	01010113          	addi	sp,sp,16
 6a0:	00008067          	ret
 6a4:	38000737          	lui	a4,0x38000
 6a8:	40b70713          	addi	a4,a4,1035 # 3800040b <count.1+0x37ff194f>
 6ac:	00271713          	slli	a4,a4,0x2
 6b0:	00072783          	lw	a5,0(a4)
 6b4:	0107f793          	andi	a5,a5,16
 6b8:	fe079ce3          	bnez	a5,6b0 <uart_send_integer.part.0+0xa4>
 6bc:	0e0007b7          	lui	a5,0xe000
 6c0:	10378793          	addi	a5,a5,259 # e000103 <count.1+0xdff1647>
 6c4:	00479793          	slli	a5,a5,0x4
 6c8:	02d00713          	li	a4,45
 6cc:	00e7a023          	sw	a4,0(a5)
 6d0:	40a0053b          	negw	a0,a0
 6d4:	f41ff06f          	j	614 <uart_send_integer.part.0+0x8>
 6d8:	00008067          	ret

00000000000006dc <uart_send_string>:
 6dc:	00054683          	lbu	a3,0(a0)
 6e0:	02068e63          	beqz	a3,71c <uart_send_string+0x40>
 6e4:	38000737          	lui	a4,0x38000
 6e8:	0e000637          	lui	a2,0xe000
 6ec:	40b70713          	addi	a4,a4,1035 # 3800040b <count.1+0x37ff194f>
 6f0:	10360613          	addi	a2,a2,259 # e000103 <count.1+0xdff1647>
 6f4:	00271713          	slli	a4,a4,0x2
 6f8:	00461613          	slli	a2,a2,0x4
 6fc:	00150513          	addi	a0,a0,1
 700:	00072783          	lw	a5,0(a4)
 704:	0107f793          	andi	a5,a5,16
 708:	fe079ce3          	bnez	a5,700 <uart_send_string+0x24>
 70c:	0006869b          	sext.w	a3,a3
 710:	00d62023          	sw	a3,0(a2)
 714:	00054683          	lbu	a3,0(a0)
 718:	fe0692e3          	bnez	a3,6fc <uart_send_string+0x20>
 71c:	00008067          	ret

0000000000000720 <uart_send_integer>:
 720:	00050463          	beqz	a0,728 <uart_send_integer+0x8>
 724:	ee9ff06f          	j	60c <uart_send_integer.part.0>
 728:	38000737          	lui	a4,0x38000
 72c:	40b70713          	addi	a4,a4,1035 # 3800040b <count.1+0x37ff194f>
 730:	00271713          	slli	a4,a4,0x2
 734:	00072783          	lw	a5,0(a4)
 738:	0107f793          	andi	a5,a5,16
 73c:	fe079ce3          	bnez	a5,734 <uart_send_integer+0x14>
 740:	0e0007b7          	lui	a5,0xe000
 744:	10378793          	addi	a5,a5,259 # e000103 <count.1+0xdff1647>
 748:	00479793          	slli	a5,a5,0x4
 74c:	03000713          	li	a4,48
 750:	00e7a023          	sw	a4,0(a5)
 754:	00008067          	ret

0000000000000758 <syscall_print_matrix>:
 758:	38000737          	lui	a4,0x38000
 75c:	0e0006b7          	lui	a3,0xe000
 760:	fa010113          	addi	sp,sp,-96
 764:	40b70713          	addi	a4,a4,1035 # 3800040b <count.1+0x37ff194f>
 768:	10368693          	addi	a3,a3,259 # e000103 <count.1+0xdff1647>
 76c:	05213023          	sd	s2,64(sp)
 770:	04113c23          	sd	ra,88(sp)
 774:	00050913          	mv	s2,a0
 778:	05200613          	li	a2,82
 77c:	00000517          	auipc	a0,0x0
 780:	2f450513          	addi	a0,a0,756 # a70 <main+0x54>
 784:	00271713          	slli	a4,a4,0x2
 788:	00469693          	slli	a3,a3,0x4
 78c:	00150513          	addi	a0,a0,1
 790:	00072783          	lw	a5,0(a4)
 794:	0107f793          	andi	a5,a5,16
 798:	fe079ce3          	bnez	a5,790 <syscall_print_matrix+0x38>
 79c:	0006061b          	sext.w	a2,a2
 7a0:	00c6a023          	sw	a2,0(a3)
 7a4:	00054603          	lbu	a2,0(a0)
 7a8:	fe0612e3          	bnez	a2,78c <syscall_print_matrix+0x34>
 7ac:	0d205063          	blez	s2,86c <syscall_print_matrix+0x114>
 7b0:	04813823          	sd	s0,80(sp)
 7b4:	01713c23          	sd	s7,24(sp)
 7b8:	38000437          	lui	s0,0x38000
 7bc:	0e000bb7          	lui	s7,0xe000
 7c0:	03313c23          	sd	s3,56(sp)
 7c4:	40b40413          	addi	s0,s0,1035 # 3800040b <count.1+0x37ff194f>
 7c8:	00291993          	slli	s3,s2,0x2
 7cc:	103b8b93          	addi	s7,s7,259 # e000103 <count.1+0xdff1647>
 7d0:	03413823          	sd	s4,48(sp)
 7d4:	03513423          	sd	s5,40(sp)
 7d8:	03613023          	sd	s6,32(sp)
 7dc:	01813823          	sd	s8,16(sp)
 7e0:	01913423          	sd	s9,8(sp)
 7e4:	04913423          	sd	s1,72(sp)
 7e8:	01358b33          	add	s6,a1,s3
 7ec:	00000c93          	li	s9,0
 7f0:	00241413          	slli	s0,s0,0x2
 7f4:	004b9b93          	slli	s7,s7,0x4
 7f8:	03000a93          	li	s5,48
 7fc:	02000c13          	li	s8,32
 800:	00a00a13          	li	s4,10
 804:	413b04b3          	sub	s1,s6,s3
 808:	0004a503          	lw	a0,0(s1)
 80c:	08050e63          	beqz	a0,8a8 <syscall_print_matrix+0x150>
 810:	dfdff0ef          	jal	60c <uart_send_integer.part.0>
 814:	00042783          	lw	a5,0(s0)
 818:	0107f793          	andi	a5,a5,16
 81c:	fe079ce3          	bnez	a5,814 <syscall_print_matrix+0xbc>
 820:	018ba023          	sw	s8,0(s7)
 824:	00448493          	addi	s1,s1,4
 828:	fe9b10e3          	bne	s6,s1,808 <syscall_print_matrix+0xb0>
 82c:	00042783          	lw	a5,0(s0)
 830:	0107f793          	andi	a5,a5,16
 834:	fe079ce3          	bnez	a5,82c <syscall_print_matrix+0xd4>
 838:	014ba023          	sw	s4,0(s7)
 83c:	001c8c9b          	addiw	s9,s9,1
 840:	013b0b33          	add	s6,s6,s3
 844:	fd9910e3          	bne	s2,s9,804 <syscall_print_matrix+0xac>
 848:	05013403          	ld	s0,80(sp)
 84c:	04813483          	ld	s1,72(sp)
 850:	03813983          	ld	s3,56(sp)
 854:	03013a03          	ld	s4,48(sp)
 858:	02813a83          	ld	s5,40(sp)
 85c:	02013b03          	ld	s6,32(sp)
 860:	01813b83          	ld	s7,24(sp)
 864:	01013c03          	ld	s8,16(sp)
 868:	00813c83          	ld	s9,8(sp)
 86c:	38000737          	lui	a4,0x38000
 870:	40b70713          	addi	a4,a4,1035 # 3800040b <count.1+0x37ff194f>
 874:	00271713          	slli	a4,a4,0x2
 878:	00072783          	lw	a5,0(a4)
 87c:	0107f793          	andi	a5,a5,16
 880:	fe079ce3          	bnez	a5,878 <syscall_print_matrix+0x120>
 884:	0e0007b7          	lui	a5,0xe000
 888:	05813083          	ld	ra,88(sp)
 88c:	10378793          	addi	a5,a5,259 # e000103 <count.1+0xdff1647>
 890:	00479793          	slli	a5,a5,0x4
 894:	00a00713          	li	a4,10
 898:	00e7a023          	sw	a4,0(a5)
 89c:	04013903          	ld	s2,64(sp)
 8a0:	06010113          	addi	sp,sp,96
 8a4:	00008067          	ret
 8a8:	00042783          	lw	a5,0(s0)
 8ac:	0107f793          	andi	a5,a5,16
 8b0:	fe079ce3          	bnez	a5,8a8 <syscall_print_matrix+0x150>
 8b4:	015ba023          	sw	s5,0(s7)
 8b8:	f5dff06f          	j	814 <syscall_print_matrix+0xbc>

00000000000008bc <syscall_print_array>:
 8bc:	38000737          	lui	a4,0x38000
 8c0:	0e000837          	lui	a6,0xe000
 8c4:	40b70713          	addi	a4,a4,1035 # 3800040b <count.1+0x37ff194f>
 8c8:	10380813          	addi	a6,a6,259 # e000103 <count.1+0xdff1647>
 8cc:	00050693          	mv	a3,a0
 8d0:	05200613          	li	a2,82
 8d4:	00000517          	auipc	a0,0x0
 8d8:	1ac50513          	addi	a0,a0,428 # a80 <main+0x64>
 8dc:	00271713          	slli	a4,a4,0x2
 8e0:	00481813          	slli	a6,a6,0x4
 8e4:	00150513          	addi	a0,a0,1
 8e8:	00072783          	lw	a5,0(a4)
 8ec:	0107f793          	andi	a5,a5,16
 8f0:	fe079ce3          	bnez	a5,8e8 <syscall_print_array+0x2c>
 8f4:	0006061b          	sext.w	a2,a2
 8f8:	00c82023          	sw	a2,0(a6)
 8fc:	00054603          	lbu	a2,0(a0)
 900:	fe0612e3          	bnez	a2,8e4 <syscall_print_array+0x28>
 904:	0cd05c63          	blez	a3,9dc <syscall_print_array+0x120>
 908:	fc010113          	addi	sp,sp,-64
 90c:	02813823          	sd	s0,48(sp)
 910:	03213023          	sd	s2,32(sp)
 914:	38000437          	lui	s0,0x38000
 918:	0e000937          	lui	s2,0xe000
 91c:	00269693          	slli	a3,a3,0x2
 920:	40b40413          	addi	s0,s0,1035 # 3800040b <count.1+0x37ff194f>
 924:	10390913          	addi	s2,s2,259 # e000103 <count.1+0xdff1647>
 928:	02913423          	sd	s1,40(sp)
 92c:	01313c23          	sd	s3,24(sp)
 930:	01413823          	sd	s4,16(sp)
 934:	01513423          	sd	s5,8(sp)
 938:	02113c23          	sd	ra,56(sp)
 93c:	00058493          	mv	s1,a1
 940:	00d589b3          	add	s3,a1,a3
 944:	00241413          	slli	s0,s0,0x2
 948:	00491913          	slli	s2,s2,0x4
 94c:	03000a93          	li	s5,48
 950:	02000a13          	li	s4,32
 954:	0004a503          	lw	a0,0(s1)
 958:	06050863          	beqz	a0,9c8 <syscall_print_array+0x10c>
 95c:	cb1ff0ef          	jal	60c <uart_send_integer.part.0>
 960:	00042783          	lw	a5,0(s0)
 964:	0107f793          	andi	a5,a5,16
 968:	fe079ce3          	bnez	a5,960 <syscall_print_array+0xa4>
 96c:	01492023          	sw	s4,0(s2)
 970:	00448493          	addi	s1,s1,4
 974:	fe9990e3          	bne	s3,s1,954 <syscall_print_array+0x98>
 978:	38000737          	lui	a4,0x38000
 97c:	40b70713          	addi	a4,a4,1035 # 3800040b <count.1+0x37ff194f>
 980:	00271713          	slli	a4,a4,0x2
 984:	00072783          	lw	a5,0(a4)
 988:	0107f793          	andi	a5,a5,16
 98c:	fe079ce3          	bnez	a5,984 <syscall_print_array+0xc8>
 990:	0e0007b7          	lui	a5,0xe000
 994:	03813083          	ld	ra,56(sp)
 998:	03013403          	ld	s0,48(sp)
 99c:	10378793          	addi	a5,a5,259 # e000103 <count.1+0xdff1647>
 9a0:	00479793          	slli	a5,a5,0x4
 9a4:	00a00713          	li	a4,10
 9a8:	00e7a023          	sw	a4,0(a5)
 9ac:	02813483          	ld	s1,40(sp)
 9b0:	02013903          	ld	s2,32(sp)
 9b4:	01813983          	ld	s3,24(sp)
 9b8:	01013a03          	ld	s4,16(sp)
 9bc:	00813a83          	ld	s5,8(sp)
 9c0:	04010113          	addi	sp,sp,64
 9c4:	00008067          	ret
 9c8:	00042783          	lw	a5,0(s0)
 9cc:	0107f793          	andi	a5,a5,16
 9d0:	fe079ce3          	bnez	a5,9c8 <syscall_print_array+0x10c>
 9d4:	01592023          	sw	s5,0(s2)
 9d8:	f89ff06f          	j	960 <syscall_print_array+0xa4>
 9dc:	38000737          	lui	a4,0x38000
 9e0:	40b70713          	addi	a4,a4,1035 # 3800040b <count.1+0x37ff194f>
 9e4:	00271713          	slli	a4,a4,0x2
 9e8:	00072783          	lw	a5,0(a4)
 9ec:	0107f793          	andi	a5,a5,16
 9f0:	fe079ce3          	bnez	a5,9e8 <syscall_print_array+0x12c>
 9f4:	0e0007b7          	lui	a5,0xe000
 9f8:	10378793          	addi	a5,a5,259 # e000103 <count.1+0xdff1647>
 9fc:	00479793          	slli	a5,a5,0x4
 a00:	00a00713          	li	a4,10
 a04:	00e7a023          	sw	a4,0(a5)
 a08:	00008067          	ret
 a0c:	00050463          	beqz	a0,a14 <syscall_print_array+0x158>
 a10:	0000006f          	j	a10 <syscall_print_array+0x154>
 a14:	00008067          	ret

0000000000000a18 <exit>:
 a18:	0000006f          	j	a18 <exit>

Disassembly of section .text.startup:

0000000000000a1c <main>:
 a1c:	ff010113          	addi	sp,sp,-16
 a20:	00000517          	auipc	a0,0x0
 a24:	07050513          	addi	a0,a0,112 # a90 <main+0x74>
 a28:	00113423          	sd	ra,8(sp)
 a2c:	cb1ff0ef          	jal	6dc <uart_send_string>
 a30:	00813083          	ld	ra,8(sp)
 a34:	fff00513          	li	a0,-1
 a38:	01010113          	addi	sp,sp,16
 a3c:	00008067          	ret
