
mt-vvadd.riscv:     file format elf64-littleriscv


Disassembly of section .text.init:

0000000000000000 <_start>:
   0:	00001197          	auipc	gp,0x1
   4:	08018193          	addi	gp,gp,128 # 1080 <_gp>
   8:	00000093          	li	ra,0
   c:	00000113          	li	sp,0
  10:	00000193          	li	gp,0
  14:	00000213          	li	tp,0
  18:	00000293          	li	t0,0
  1c:	00000313          	li	t1,0
  20:	00000393          	li	t2,0
  24:	00000413          	li	s0,0
  28:	00000493          	li	s1,0
  2c:	00000513          	li	a0,0
  30:	00000593          	li	a1,0
  34:	00000613          	li	a2,0
  38:	00000693          	li	a3,0
  3c:	00000713          	li	a4,0
  40:	00000793          	li	a5,0
  44:	00000813          	li	a6,0
  48:	00000893          	li	a7,0
  4c:	00000913          	li	s2,0
  50:	00000993          	li	s3,0
  54:	00000a13          	li	s4,0
  58:	00000a93          	li	s5,0
  5c:	00000b13          	li	s6,0
  60:	00000b93          	li	s7,0
  64:	00000c13          	li	s8,0
  68:	00000c93          	li	s9,0
  6c:	00000d13          	li	s10,0
  70:	00000d93          	li	s11,0
  74:	00000e13          	li	t3,0
  78:	00000e93          	li	t4,0
  7c:	00000f13          	li	t5,0
  80:	00000f93          	li	t6,0
  84:	00100293          	li	t0,1
  88:	01f29293          	slli	t0,t0,0x1f
  8c:	0202d063          	bgez	t0,ac <_start+0xac>
  90:	00100513          	li	a0,1
  94:	000e0337          	lui	t1,0xe0
  98:	0013031b          	addiw	t1,t1,1 # e0001 <count.1+0xdb8f5>
  9c:	00c31313          	slli	t1,t1,0xc
  a0:	03030313          	addi	t1,t1,48
  a4:	00a32023          	sw	a0,0(t1)
  a8:	fe9ff06f          	j	90 <_start+0x90>
  ac:	00000297          	auipc	t0,0x0
  b0:	07828293          	addi	t0,t0,120 # 124 <trap_entry>
  b4:	30529073          	csrw	mtvec,t0
  b8:	f1402573          	csrr	a0,mhartid
  bc:	02051863          	bnez	a0,ec <sync_all_harts>
  c0:	00003f17          	auipc	t5,0x3
  c4:	6a8f0f13          	addi	t5,t5,1704 # 3768 <results_data.2>
  c8:	00004f97          	auipc	t6,0x4
  cc:	640f8f93          	addi	t6,t6,1600 # 4708 <sense.0>

00000000000000d0 <clear_bss>:
  d0:	01ff5863          	bge	t5,t6,e0 <finish_bss>
  d4:	000f2023          	sw	zero,0(t5)
  d8:	004f0f13          	addi	t5,t5,4
  dc:	ff5ff06f          	j	d0 <clear_bss>

00000000000000e0 <finish_bss>:
  e0:	00003597          	auipc	a1,0x3
  e4:	68058593          	addi	a1,a1,1664 # 3760 <hart_init_sync>
  e8:	0005a023          	sw	zero,0(a1)

00000000000000ec <sync_all_harts>:
  ec:	00003597          	auipc	a1,0x3
  f0:	67458593          	addi	a1,a1,1652 # 3760 <hart_init_sync>
  f4:	0005a603          	lw	a2,0(a1)
  f8:	fe061ae3          	bnez	a2,ec <sync_all_harts>
  fc:	00200593          	li	a1,2
 100:	00100e13          	li	t3,1
 104:	012e1393          	slli	t2,t3,0x12
 108:	027502b3          	mul	t0,a0,t2
 10c:	10040337          	lui	t1,0x10040
 110:	00530333          	add	t1,t1,t0
 114:	00030213          	mv	tp,t1
 118:	00730333          	add	t1,t1,t2
 11c:	00030113          	mv	sp,t1
 120:	188000ef          	jal	2a8 <thread_entry>

0000000000000124 <trap_entry>:
 124:	ef010113          	addi	sp,sp,-272
 128:	00113423          	sd	ra,8(sp)
 12c:	00213823          	sd	sp,16(sp)
 130:	00313c23          	sd	gp,24(sp)
 134:	02413023          	sd	tp,32(sp)
 138:	02513423          	sd	t0,40(sp)
 13c:	02613823          	sd	t1,48(sp)
 140:	02713c23          	sd	t2,56(sp)
 144:	04813023          	sd	s0,64(sp)
 148:	04913423          	sd	s1,72(sp)
 14c:	04a13823          	sd	a0,80(sp)
 150:	04b13c23          	sd	a1,88(sp)
 154:	06c13023          	sd	a2,96(sp)
 158:	06d13423          	sd	a3,104(sp)
 15c:	06e13823          	sd	a4,112(sp)
 160:	06f13c23          	sd	a5,120(sp)
 164:	09013023          	sd	a6,128(sp)
 168:	09113423          	sd	a7,136(sp)
 16c:	09213823          	sd	s2,144(sp)
 170:	09313c23          	sd	s3,152(sp)
 174:	0b413023          	sd	s4,160(sp)
 178:	0b513423          	sd	s5,168(sp)
 17c:	0b613823          	sd	s6,176(sp)
 180:	0b713c23          	sd	s7,184(sp)
 184:	0d813023          	sd	s8,192(sp)
 188:	0d913423          	sd	s9,200(sp)
 18c:	0da13823          	sd	s10,208(sp)
 190:	0db13c23          	sd	s11,216(sp)
 194:	0fc13023          	sd	t3,224(sp)
 198:	0fd13423          	sd	t4,232(sp)
 19c:	0fe13823          	sd	t5,240(sp)
 1a0:	0ff13c23          	sd	t6,248(sp)
 1a4:	34202573          	csrr	a0,mcause
 1a8:	341025f3          	csrr	a1,mepc
 1ac:	00010613          	mv	a2,sp
 1b0:	0f8000ef          	jal	2a8 <thread_entry>
 1b4:	34151073          	csrw	mepc,a0
 1b8:	000022b7          	lui	t0,0x2
 1bc:	8002829b          	addiw	t0,t0,-2048 # 1800 <_gp+0x780>
 1c0:	3002a073          	csrs	mstatus,t0
 1c4:	00813083          	ld	ra,8(sp)
 1c8:	01013103          	ld	sp,16(sp)
 1cc:	01813183          	ld	gp,24(sp)
 1d0:	02013203          	ld	tp,32(sp)
 1d4:	02813283          	ld	t0,40(sp)
 1d8:	03013303          	ld	t1,48(sp)
 1dc:	03813383          	ld	t2,56(sp)
 1e0:	04013403          	ld	s0,64(sp)
 1e4:	04813483          	ld	s1,72(sp)
 1e8:	05013503          	ld	a0,80(sp)
 1ec:	05813583          	ld	a1,88(sp)
 1f0:	06013603          	ld	a2,96(sp)
 1f4:	06813683          	ld	a3,104(sp)
 1f8:	07013703          	ld	a4,112(sp)
 1fc:	07813783          	ld	a5,120(sp)
 200:	08013803          	ld	a6,128(sp)
 204:	08813883          	ld	a7,136(sp)
 208:	09013903          	ld	s2,144(sp)
 20c:	09813983          	ld	s3,152(sp)
 210:	0a013a03          	ld	s4,160(sp)
 214:	0a813a83          	ld	s5,168(sp)
 218:	0b013b03          	ld	s6,176(sp)
 21c:	0b813b83          	ld	s7,184(sp)
 220:	0c013c03          	ld	s8,192(sp)
 224:	0c813c83          	ld	s9,200(sp)
 228:	0d013d03          	ld	s10,208(sp)
 22c:	0d813d83          	ld	s11,216(sp)
 230:	0e013e03          	ld	t3,224(sp)
 234:	0e813e83          	ld	t4,232(sp)
 238:	0f013f03          	ld	t5,240(sp)
 23c:	0f813f83          	ld	t6,248(sp)
 240:	11010113          	addi	sp,sp,272
 244:	30200073          	mret

Disassembly of section .text:

0000000000000248 <barrier>:
 248:	0ff0000f          	fence
 24c:	00022703          	lw	a4,0(tp) # 0 <_start>
 250:	00100693          	li	a3,1
 254:	00173713          	seqz	a4,a4
 258:	00e22023          	sw	a4,0(tp) # 0 <_start>
 25c:	00004717          	auipc	a4,0x4
 260:	4b070713          	addi	a4,a4,1200 # 470c <count.1>
 264:	06d7272f          	amoadd.w.aqrl	a4,a3,(a4)
 268:	0007071b          	sext.w	a4,a4
 26c:	fff5051b          	addiw	a0,a0,-1
 270:	02e50063          	beq	a0,a4,290 <barrier+0x48>
 274:	00022683          	lw	a3,0(tp) # 0 <_start>
 278:	00004717          	auipc	a4,0x4
 27c:	49070713          	addi	a4,a4,1168 # 4708 <sense.0>
 280:	00072783          	lw	a5,0(a4)
 284:	fed79ee3          	bne	a5,a3,280 <barrier+0x38>
 288:	0ff0000f          	fence
 28c:	00008067          	ret
 290:	00022783          	lw	a5,0(tp) # 0 <_start>
 294:	00004717          	auipc	a4,0x4
 298:	46072c23          	sw	zero,1144(a4) # 470c <count.1>
 29c:	00004717          	auipc	a4,0x4
 2a0:	46f72623          	sw	a5,1132(a4) # 4708 <sense.0>
 2a4:	fe5ff06f          	j	288 <barrier+0x40>

00000000000002a8 <thread_entry>:
 2a8:	fe010113          	addi	sp,sp,-32
 2ac:	00003797          	auipc	a5,0x3
 2b0:	4bc78793          	addi	a5,a5,1212 # 3768 <results_data.2>
 2b4:	00001717          	auipc	a4,0x1
 2b8:	56c70713          	addi	a4,a4,1388 # 1820 <input_data_Y>
 2bc:	00002697          	auipc	a3,0x2
 2c0:	50468693          	addi	a3,a3,1284 # 27c0 <input_data_X>
 2c4:	3e800613          	li	a2,1000
 2c8:	00813823          	sd	s0,16(sp)
 2cc:	00913423          	sd	s1,8(sp)
 2d0:	00050413          	mv	s0,a0
 2d4:	00113c23          	sd	ra,24(sp)
 2d8:	00058493          	mv	s1,a1
 2dc:	09c000ef          	jal	378 <vvadd>
 2e0:	00048513          	mv	a0,s1
 2e4:	f65ff0ef          	jal	248 <barrier>
 2e8:	00040663          	beqz	s0,2f4 <thread_entry+0x4c>
 2ec:	00200513          	li	a0,2
 2f0:	500000ef          	jal	7f0 <exit>
 2f4:	00000517          	auipc	a0,0x0
 2f8:	52450513          	addi	a0,a0,1316 # 818 <main+0x24>
 2fc:	1b8000ef          	jal	4b4 <uart_send_string>
 300:	00003717          	auipc	a4,0x3
 304:	46870713          	addi	a4,a4,1128 # 3768 <results_data.2>
 308:	00000797          	auipc	a5,0x0
 30c:	57878793          	addi	a5,a5,1400 # 880 <verify_data_Z>
 310:	00000513          	li	a0,0
 314:	3e800893          	li	a7,1000
 318:	0180006f          	j	330 <thread_entry+0x88>
 31c:	0025051b          	addiw	a0,a0,2
 320:	03069663          	bne	a3,a6,34c <thread_entry+0xa4>
 324:	00870713          	addi	a4,a4,8
 328:	00878793          	addi	a5,a5,8
 32c:	05150263          	beq	a0,a7,370 <thread_entry+0xc8>
 330:	00072603          	lw	a2,0(a4)
 334:	0007a583          	lw	a1,0(a5)
 338:	00472683          	lw	a3,4(a4)
 33c:	0047a803          	lw	a6,4(a5)
 340:	0006869b          	sext.w	a3,a3
 344:	fcc58ce3          	beq	a1,a2,31c <thread_entry+0x74>
 348:	0015051b          	addiw	a0,a0,1
 34c:	1ac000ef          	jal	4f8 <uart_send_integer>
 350:	00000517          	auipc	a0,0x0
 354:	4f050513          	addi	a0,a0,1264 # 840 <main+0x4c>
 358:	15c000ef          	jal	4b4 <uart_send_string>
 35c:	00003597          	auipc	a1,0x3
 360:	40c58593          	addi	a1,a1,1036 # 3768 <results_data.2>
 364:	3e800513          	li	a0,1000
 368:	32c000ef          	jal	694 <syscall_print_array>
 36c:	f81ff06f          	j	2ec <thread_entry+0x44>
 370:	00000513          	li	a0,0
 374:	fd9ff06f          	j	34c <thread_entry+0xa4>

0000000000000378 <vvadd>:
 378:	02b645bb          	divw	a1,a2,a1
 37c:	02a5883b          	mulw	a6,a1,a0
 380:	0105833b          	addw	t1,a1,a6
 384:	00080513          	mv	a0,a6
 388:	00030893          	mv	a7,t1
 38c:	00665463          	bge	a2,t1,394 <vvadd+0x1c>
 390:	0006089b          	sext.w	a7,a2
 394:	011585bb          	addw	a1,a1,a7
 398:	00b65463          	bge	a2,a1,3a0 <vvadd+0x28>
 39c:	00060893          	mv	a7,a2
 3a0:	05185063          	bge	a6,a7,3e0 <vvadd+0x68>
 3a4:	40a8853b          	subw	a0,a7,a0
 3a8:	02051513          	slli	a0,a0,0x20
 3ac:	02055513          	srli	a0,a0,0x20
 3b0:	01050533          	add	a0,a0,a6
 3b4:	00281613          	slli	a2,a6,0x2
 3b8:	00251513          	slli	a0,a0,0x2
 3bc:	00c68833          	add	a6,a3,a2
 3c0:	00c705b3          	add	a1,a4,a2
 3c4:	00082883          	lw	a7,0(a6)
 3c8:	0005a583          	lw	a1,0(a1)
 3cc:	00c78833          	add	a6,a5,a2
 3d0:	00460613          	addi	a2,a2,4
 3d4:	011585bb          	addw	a1,a1,a7
 3d8:	00b82023          	sw	a1,0(a6)
 3dc:	fea610e3          	bne	a2,a0,3bc <vvadd+0x44>
 3e0:	00008067          	ret

00000000000003e4 <uart_send_integer.part.0>:
 3e4:	08054c63          	bltz	a0,47c <uart_send_integer.part.0+0x98>
 3e8:	0c050463          	beqz	a0,4b0 <uart_send_integer.part.0+0xcc>
 3ec:	ff010113          	addi	sp,sp,-16
 3f0:	00010693          	mv	a3,sp
 3f4:	00068793          	mv	a5,a3
 3f8:	00a00613          	li	a2,10
 3fc:	02c5673b          	remw	a4,a0,a2
 400:	00078593          	mv	a1,a5
 404:	00178793          	addi	a5,a5,1
 408:	02c5453b          	divw	a0,a0,a2
 40c:	0307071b          	addiw	a4,a4,48
 410:	fee78fa3          	sb	a4,-1(a5)
 414:	fe0514e3          	bnez	a0,3fc <uart_send_integer.part.0+0x18>
 418:	40d587bb          	subw	a5,a1,a3
 41c:	0017861b          	addiw	a2,a5,1
 420:	fff6079b          	addiw	a5,a2,-1
 424:	fff68513          	addi	a0,a3,-1
 428:	38000737          	lui	a4,0x38000
 42c:	0e0005b7          	lui	a1,0xe000
 430:	02079793          	slli	a5,a5,0x20
 434:	00c50533          	add	a0,a0,a2
 438:	0207d793          	srli	a5,a5,0x20
 43c:	40b70713          	addi	a4,a4,1035 # 3800040b <count.1+0x37ffbcff>
 440:	10358593          	addi	a1,a1,259 # e000103 <count.1+0xdffb9f7>
 444:	00c686b3          	add	a3,a3,a2
 448:	40f50533          	sub	a0,a0,a5
 44c:	00271713          	slli	a4,a4,0x2
 450:	00459593          	slli	a1,a1,0x4
 454:	fff6c603          	lbu	a2,-1(a3)
 458:	00072783          	lw	a5,0(a4)
 45c:	0107f793          	andi	a5,a5,16
 460:	fe079ce3          	bnez	a5,458 <uart_send_integer.part.0+0x74>
 464:	0006079b          	sext.w	a5,a2
 468:	00f5a023          	sw	a5,0(a1)
 46c:	fff68693          	addi	a3,a3,-1
 470:	fea692e3          	bne	a3,a0,454 <uart_send_integer.part.0+0x70>
 474:	01010113          	addi	sp,sp,16
 478:	00008067          	ret
 47c:	38000737          	lui	a4,0x38000
 480:	40b70713          	addi	a4,a4,1035 # 3800040b <count.1+0x37ffbcff>
 484:	00271713          	slli	a4,a4,0x2
 488:	00072783          	lw	a5,0(a4)
 48c:	0107f793          	andi	a5,a5,16
 490:	fe079ce3          	bnez	a5,488 <uart_send_integer.part.0+0xa4>
 494:	0e0007b7          	lui	a5,0xe000
 498:	10378793          	addi	a5,a5,259 # e000103 <count.1+0xdffb9f7>
 49c:	00479793          	slli	a5,a5,0x4
 4a0:	02d00713          	li	a4,45
 4a4:	00e7a023          	sw	a4,0(a5)
 4a8:	40a0053b          	negw	a0,a0
 4ac:	f41ff06f          	j	3ec <uart_send_integer.part.0+0x8>
 4b0:	00008067          	ret

00000000000004b4 <uart_send_string>:
 4b4:	00054683          	lbu	a3,0(a0)
 4b8:	02068e63          	beqz	a3,4f4 <uart_send_string+0x40>
 4bc:	38000737          	lui	a4,0x38000
 4c0:	0e000637          	lui	a2,0xe000
 4c4:	40b70713          	addi	a4,a4,1035 # 3800040b <count.1+0x37ffbcff>
 4c8:	10360613          	addi	a2,a2,259 # e000103 <count.1+0xdffb9f7>
 4cc:	00271713          	slli	a4,a4,0x2
 4d0:	00461613          	slli	a2,a2,0x4
 4d4:	00150513          	addi	a0,a0,1
 4d8:	00072783          	lw	a5,0(a4)
 4dc:	0107f793          	andi	a5,a5,16
 4e0:	fe079ce3          	bnez	a5,4d8 <uart_send_string+0x24>
 4e4:	0006869b          	sext.w	a3,a3
 4e8:	00d62023          	sw	a3,0(a2)
 4ec:	00054683          	lbu	a3,0(a0)
 4f0:	fe0692e3          	bnez	a3,4d4 <uart_send_string+0x20>
 4f4:	00008067          	ret

00000000000004f8 <uart_send_integer>:
 4f8:	00050463          	beqz	a0,500 <uart_send_integer+0x8>
 4fc:	ee9ff06f          	j	3e4 <uart_send_integer.part.0>
 500:	38000737          	lui	a4,0x38000
 504:	40b70713          	addi	a4,a4,1035 # 3800040b <count.1+0x37ffbcff>
 508:	00271713          	slli	a4,a4,0x2
 50c:	00072783          	lw	a5,0(a4)
 510:	0107f793          	andi	a5,a5,16
 514:	fe079ce3          	bnez	a5,50c <uart_send_integer+0x14>
 518:	0e0007b7          	lui	a5,0xe000
 51c:	10378793          	addi	a5,a5,259 # e000103 <count.1+0xdffb9f7>
 520:	00479793          	slli	a5,a5,0x4
 524:	03000713          	li	a4,48
 528:	00e7a023          	sw	a4,0(a5)
 52c:	00008067          	ret

0000000000000530 <syscall_print_matrix>:
 530:	38000737          	lui	a4,0x38000
 534:	0e0006b7          	lui	a3,0xe000
 538:	fa010113          	addi	sp,sp,-96
 53c:	40b70713          	addi	a4,a4,1035 # 3800040b <count.1+0x37ffbcff>
 540:	10368693          	addi	a3,a3,259 # e000103 <count.1+0xdffb9f7>
 544:	05213023          	sd	s2,64(sp)
 548:	04113c23          	sd	ra,88(sp)
 54c:	00050913          	mv	s2,a0
 550:	05200613          	li	a2,82
 554:	00000517          	auipc	a0,0x0
 558:	2f450513          	addi	a0,a0,756 # 848 <main+0x54>
 55c:	00271713          	slli	a4,a4,0x2
 560:	00469693          	slli	a3,a3,0x4
 564:	00150513          	addi	a0,a0,1
 568:	00072783          	lw	a5,0(a4)
 56c:	0107f793          	andi	a5,a5,16
 570:	fe079ce3          	bnez	a5,568 <syscall_print_matrix+0x38>
 574:	0006061b          	sext.w	a2,a2
 578:	00c6a023          	sw	a2,0(a3)
 57c:	00054603          	lbu	a2,0(a0)
 580:	fe0612e3          	bnez	a2,564 <syscall_print_matrix+0x34>
 584:	0d205063          	blez	s2,644 <syscall_print_matrix+0x114>
 588:	04813823          	sd	s0,80(sp)
 58c:	01713c23          	sd	s7,24(sp)
 590:	38000437          	lui	s0,0x38000
 594:	0e000bb7          	lui	s7,0xe000
 598:	03313c23          	sd	s3,56(sp)
 59c:	40b40413          	addi	s0,s0,1035 # 3800040b <count.1+0x37ffbcff>
 5a0:	00291993          	slli	s3,s2,0x2
 5a4:	103b8b93          	addi	s7,s7,259 # e000103 <count.1+0xdffb9f7>
 5a8:	03413823          	sd	s4,48(sp)
 5ac:	03513423          	sd	s5,40(sp)
 5b0:	03613023          	sd	s6,32(sp)
 5b4:	01813823          	sd	s8,16(sp)
 5b8:	01913423          	sd	s9,8(sp)
 5bc:	04913423          	sd	s1,72(sp)
 5c0:	01358b33          	add	s6,a1,s3
 5c4:	00000c93          	li	s9,0
 5c8:	00241413          	slli	s0,s0,0x2
 5cc:	004b9b93          	slli	s7,s7,0x4
 5d0:	03000a93          	li	s5,48
 5d4:	02000c13          	li	s8,32
 5d8:	00a00a13          	li	s4,10
 5dc:	413b04b3          	sub	s1,s6,s3
 5e0:	0004a503          	lw	a0,0(s1)
 5e4:	08050e63          	beqz	a0,680 <syscall_print_matrix+0x150>
 5e8:	dfdff0ef          	jal	3e4 <uart_send_integer.part.0>
 5ec:	00042783          	lw	a5,0(s0)
 5f0:	0107f793          	andi	a5,a5,16
 5f4:	fe079ce3          	bnez	a5,5ec <syscall_print_matrix+0xbc>
 5f8:	018ba023          	sw	s8,0(s7)
 5fc:	00448493          	addi	s1,s1,4
 600:	fe9b10e3          	bne	s6,s1,5e0 <syscall_print_matrix+0xb0>
 604:	00042783          	lw	a5,0(s0)
 608:	0107f793          	andi	a5,a5,16
 60c:	fe079ce3          	bnez	a5,604 <syscall_print_matrix+0xd4>
 610:	014ba023          	sw	s4,0(s7)
 614:	001c8c9b          	addiw	s9,s9,1
 618:	013b0b33          	add	s6,s6,s3
 61c:	fd9910e3          	bne	s2,s9,5dc <syscall_print_matrix+0xac>
 620:	05013403          	ld	s0,80(sp)
 624:	04813483          	ld	s1,72(sp)
 628:	03813983          	ld	s3,56(sp)
 62c:	03013a03          	ld	s4,48(sp)
 630:	02813a83          	ld	s5,40(sp)
 634:	02013b03          	ld	s6,32(sp)
 638:	01813b83          	ld	s7,24(sp)
 63c:	01013c03          	ld	s8,16(sp)
 640:	00813c83          	ld	s9,8(sp)
 644:	38000737          	lui	a4,0x38000
 648:	40b70713          	addi	a4,a4,1035 # 3800040b <count.1+0x37ffbcff>
 64c:	00271713          	slli	a4,a4,0x2
 650:	00072783          	lw	a5,0(a4)
 654:	0107f793          	andi	a5,a5,16
 658:	fe079ce3          	bnez	a5,650 <syscall_print_matrix+0x120>
 65c:	0e0007b7          	lui	a5,0xe000
 660:	05813083          	ld	ra,88(sp)
 664:	10378793          	addi	a5,a5,259 # e000103 <count.1+0xdffb9f7>
 668:	00479793          	slli	a5,a5,0x4
 66c:	00a00713          	li	a4,10
 670:	00e7a023          	sw	a4,0(a5)
 674:	04013903          	ld	s2,64(sp)
 678:	06010113          	addi	sp,sp,96
 67c:	00008067          	ret
 680:	00042783          	lw	a5,0(s0)
 684:	0107f793          	andi	a5,a5,16
 688:	fe079ce3          	bnez	a5,680 <syscall_print_matrix+0x150>
 68c:	015ba023          	sw	s5,0(s7)
 690:	f5dff06f          	j	5ec <syscall_print_matrix+0xbc>

0000000000000694 <syscall_print_array>:
 694:	38000737          	lui	a4,0x38000
 698:	0e000837          	lui	a6,0xe000
 69c:	40b70713          	addi	a4,a4,1035 # 3800040b <count.1+0x37ffbcff>
 6a0:	10380813          	addi	a6,a6,259 # e000103 <count.1+0xdffb9f7>
 6a4:	00050693          	mv	a3,a0
 6a8:	05200613          	li	a2,82
 6ac:	00000517          	auipc	a0,0x0
 6b0:	1ac50513          	addi	a0,a0,428 # 858 <main+0x64>
 6b4:	00271713          	slli	a4,a4,0x2
 6b8:	00481813          	slli	a6,a6,0x4
 6bc:	00150513          	addi	a0,a0,1
 6c0:	00072783          	lw	a5,0(a4)
 6c4:	0107f793          	andi	a5,a5,16
 6c8:	fe079ce3          	bnez	a5,6c0 <syscall_print_array+0x2c>
 6cc:	0006061b          	sext.w	a2,a2
 6d0:	00c82023          	sw	a2,0(a6)
 6d4:	00054603          	lbu	a2,0(a0)
 6d8:	fe0612e3          	bnez	a2,6bc <syscall_print_array+0x28>
 6dc:	0cd05c63          	blez	a3,7b4 <syscall_print_array+0x120>
 6e0:	fc010113          	addi	sp,sp,-64
 6e4:	02813823          	sd	s0,48(sp)
 6e8:	03213023          	sd	s2,32(sp)
 6ec:	38000437          	lui	s0,0x38000
 6f0:	0e000937          	lui	s2,0xe000
 6f4:	00269693          	slli	a3,a3,0x2
 6f8:	40b40413          	addi	s0,s0,1035 # 3800040b <count.1+0x37ffbcff>
 6fc:	10390913          	addi	s2,s2,259 # e000103 <count.1+0xdffb9f7>
 700:	02913423          	sd	s1,40(sp)
 704:	01313c23          	sd	s3,24(sp)
 708:	01413823          	sd	s4,16(sp)
 70c:	01513423          	sd	s5,8(sp)
 710:	02113c23          	sd	ra,56(sp)
 714:	00058493          	mv	s1,a1
 718:	00d589b3          	add	s3,a1,a3
 71c:	00241413          	slli	s0,s0,0x2
 720:	00491913          	slli	s2,s2,0x4
 724:	03000a93          	li	s5,48
 728:	02000a13          	li	s4,32
 72c:	0004a503          	lw	a0,0(s1)
 730:	06050863          	beqz	a0,7a0 <syscall_print_array+0x10c>
 734:	cb1ff0ef          	jal	3e4 <uart_send_integer.part.0>
 738:	00042783          	lw	a5,0(s0)
 73c:	0107f793          	andi	a5,a5,16
 740:	fe079ce3          	bnez	a5,738 <syscall_print_array+0xa4>
 744:	01492023          	sw	s4,0(s2)
 748:	00448493          	addi	s1,s1,4
 74c:	fe9990e3          	bne	s3,s1,72c <syscall_print_array+0x98>
 750:	38000737          	lui	a4,0x38000
 754:	40b70713          	addi	a4,a4,1035 # 3800040b <count.1+0x37ffbcff>
 758:	00271713          	slli	a4,a4,0x2
 75c:	00072783          	lw	a5,0(a4)
 760:	0107f793          	andi	a5,a5,16
 764:	fe079ce3          	bnez	a5,75c <syscall_print_array+0xc8>
 768:	0e0007b7          	lui	a5,0xe000
 76c:	03813083          	ld	ra,56(sp)
 770:	03013403          	ld	s0,48(sp)
 774:	10378793          	addi	a5,a5,259 # e000103 <count.1+0xdffb9f7>
 778:	00479793          	slli	a5,a5,0x4
 77c:	00a00713          	li	a4,10
 780:	00e7a023          	sw	a4,0(a5)
 784:	02813483          	ld	s1,40(sp)
 788:	02013903          	ld	s2,32(sp)
 78c:	01813983          	ld	s3,24(sp)
 790:	01013a03          	ld	s4,16(sp)
 794:	00813a83          	ld	s5,8(sp)
 798:	04010113          	addi	sp,sp,64
 79c:	00008067          	ret
 7a0:	00042783          	lw	a5,0(s0)
 7a4:	0107f793          	andi	a5,a5,16
 7a8:	fe079ce3          	bnez	a5,7a0 <syscall_print_array+0x10c>
 7ac:	01592023          	sw	s5,0(s2)
 7b0:	f89ff06f          	j	738 <syscall_print_array+0xa4>
 7b4:	38000737          	lui	a4,0x38000
 7b8:	40b70713          	addi	a4,a4,1035 # 3800040b <count.1+0x37ffbcff>
 7bc:	00271713          	slli	a4,a4,0x2
 7c0:	00072783          	lw	a5,0(a4)
 7c4:	0107f793          	andi	a5,a5,16
 7c8:	fe079ce3          	bnez	a5,7c0 <syscall_print_array+0x12c>
 7cc:	0e0007b7          	lui	a5,0xe000
 7d0:	10378793          	addi	a5,a5,259 # e000103 <count.1+0xdffb9f7>
 7d4:	00479793          	slli	a5,a5,0x4
 7d8:	00a00713          	li	a4,10
 7dc:	00e7a023          	sw	a4,0(a5)
 7e0:	00008067          	ret
 7e4:	00050463          	beqz	a0,7ec <syscall_print_array+0x158>
 7e8:	0000006f          	j	7e8 <syscall_print_array+0x154>
 7ec:	00008067          	ret

00000000000007f0 <exit>:
 7f0:	0000006f          	j	7f0 <exit>

Disassembly of section .text.startup:

00000000000007f4 <main>:
 7f4:	ff010113          	addi	sp,sp,-16
 7f8:	00000517          	auipc	a0,0x0
 7fc:	07050513          	addi	a0,a0,112 # 868 <main+0x74>
 800:	00113423          	sd	ra,8(sp)
 804:	cb1ff0ef          	jal	4b4 <uart_send_string>
 808:	00813083          	ld	ra,8(sp)
 80c:	fff00513          	li	a0,-1
 810:	01010113          	addi	sp,sp,16
 814:	00008067          	ret
